 memoryjs

 Timestamp is 5cb33daf (Sun Apr 14 22:03:27 2019)

 Preferred load address is 0000000180000000

 Start         Length     Name                   Class
 0001:00000000 00000030H .text$di                CODE
 0001:00000030 00012fc0H .text$mn                CODE
 0001:00012ff0 00000020H .text$mn$00             CODE
 0001:00013010 00000290H .text$x                 CODE
 0001:000132a0 00000023H .text$yd                CODE
 0002:00000000 000002d8H .idata$5                DATA
 0002:000002d8 00000010H .00cfg                  DATA
 0002:000002e8 00000008H .CRT$XCA                DATA
 0002:000002f0 00000020H .CRT$XCU                DATA
 0002:00000310 00000008H .CRT$XCZ                DATA
 0002:00000318 00000008H .CRT$XIA                DATA
 0002:00000320 00000018H .CRT$XIC                DATA
 0002:00000338 00000008H .CRT$XIZ                DATA
 0002:00000340 00000008H .CRT$XPA                DATA
 0002:00000348 00000010H .CRT$XPX                DATA
 0002:00000358 00000008H .CRT$XPXA               DATA
 0002:00000360 00000008H .CRT$XPZ                DATA
 0002:00000368 00000008H .CRT$XTA                DATA
 0002:00000370 00000010H .CRT$XTZ                DATA
 0002:00000378 00000000H .gfids$y                DATA
 0002:00000380 00007cb0H .rdata                  DATA
 0002:00008030 00000384H .rdata$r                DATA
 0002:000083b4 0000040cH .rdata$zzzdbg           DATA
 0002:000087c0 00000008H .rtc$IAA                DATA
 0002:000087c8 00000008H .rtc$IZZ                DATA
 0002:000087d0 00000008H .rtc$TAA                DATA
 0002:000087d8 00000008H .rtc$TZZ                DATA
 0002:000087e0 00001480H .xdata                  DATA
 0002:00009c60 000001e4H .xdata$x                DATA
 0002:00009e44 00000020H .didat$2                DATA
 0002:00009e64 00000024H .didat$3                DATA
 0002:00009e88 00000128H .didat$4                DATA
 0002:00009fb0 00000810H .didat$6                DATA
 0002:0000a7c0 00000130H .didat$7                DATA
 0002:0000a8f0 00000054H .edata                  DATA
 0002:0000a944 00000014H .idata$2                DATA
 0002:0000a958 00000018H .idata$3                DATA
 0002:0000a970 000002d8H .idata$4                DATA
 0002:0000ac48 00000692H .idata$6                DATA
 0003:00000000 00000a80H .data                   DATA
 0003:00000a80 00000130H .data$r                 DATA
 0003:00000bb0 00000130H .didat$5                DATA
 0003:00000ce0 00001204H .bss                    DATA
 0004:00000000 0000144cH .pdata                  DATA
 0005:00000000 00000060H .rsrc$01                DATA
 0005:00000060 00000180H .rsrc$02                DATA

  Address         Publics by Value              Rva+Base               Lib:Object

 0000:00000000       __hybrid_code_map          0000000000000000     <absolute>
 0000:00000000       __guard_fids_count         0000000000000000     <absolute>
 0000:00000000       __guard_iat_count          0000000000000000     <absolute>
 0000:00000000       __volatile_metadata        0000000000000000     <absolute>
 0000:00000000       __guard_longjmp_count      0000000000000000     <absolute>
 0000:00000000       __guard_longjmp_table      0000000000000000     <absolute>
 0000:00000000       __guard_iat_table          0000000000000000     <absolute>
 0000:00000000       __hybrid_code_map_count    0000000000000000     <absolute>
 0000:00000000       ___safe_se_handler_count   0000000000000000     <absolute>
 0000:00000000       __enclave_config           0000000000000000     <absolute>
 0000:00000000       ___safe_se_handler_table   0000000000000000     <absolute>
 0000:00000000       __guard_fids_table         0000000000000000     <absolute>
 0000:00000000       __hybrid_auxiliary_iat     0000000000000000     <absolute>
 0000:00000000       __dynamic_value_reloc_table 0000000000000000     <absolute>
 0000:00000100       __guard_flags              0000000000000100     <absolute>
 0000:00000000       __ImageBase                0000000180000000     <linker-defined>
 0001:00000030       ?NODE_SET_METHOD@node@@YAXV?$Local@VObject@v8@@@v8@@PEBDP6AXAEBV?$FunctionCallbackInfo@VValue@v8@@@3@@Z@Z 0000000180001030 f i memoryjs.obj
 0001:00000140       ?throwError@memoryjs@@SAXPEADPEAVIsolate@v8@@@Z 0000000180001140 f   memoryjs.obj
 0001:00000190       ?openProcess@@YAXAEBV?$FunctionCallbackInfo@VValue@v8@@@v8@@@Z 0000000180001190 f   memoryjs.obj
 0001:00000ca0       ?closeProcess@@YAXAEBV?$FunctionCallbackInfo@VValue@v8@@@v8@@@Z 0000000180001ca0 f   memoryjs.obj
 0001:00000d90       ?getProcesses@@YAXAEBV?$FunctionCallbackInfo@VValue@v8@@@v8@@@Z 0000000180001d90 f   memoryjs.obj
 0001:000011c0       ?getModules@@YAXAEBV?$FunctionCallbackInfo@VValue@v8@@@v8@@@Z 00000001800021c0 f   memoryjs.obj
 0001:000016a0       ?findModule@@YAXAEBV?$FunctionCallbackInfo@VValue@v8@@@v8@@@Z 00000001800026a0 f   memoryjs.obj
 0001:00001c90       ?readMemory@@YAXAEBV?$FunctionCallbackInfo@VValue@v8@@@v8@@@Z 0000000180002c90 f   memoryjs.obj
 0001:00002920       ?readBuffer@@YAXAEBV?$FunctionCallbackInfo@VValue@v8@@@v8@@@Z 0000000180003920 f   memoryjs.obj
 0001:00002c50       ?writeMemory@@YAXAEBV?$FunctionCallbackInfo@VValue@v8@@@v8@@@Z 0000000180003c50 f   memoryjs.obj
 0001:000036c0       ?writeBuffer@@YAXAEBV?$FunctionCallbackInfo@VValue@v8@@@v8@@@Z 00000001800046c0 f   memoryjs.obj
 0001:00003880       ?findPattern@@YAXAEBV?$FunctionCallbackInfo@VValue@v8@@@v8@@@Z 0000000180004880 f   memoryjs.obj
 0001:00003e30       ?setProtection@@YAXAEBV?$FunctionCallbackInfo@VValue@v8@@@v8@@@Z 0000000180004e30 f   memoryjs.obj
 0001:00004040       ?callFunction@@YAXAEBV?$FunctionCallbackInfo@VValue@v8@@@v8@@@Z 0000000180005040 f   memoryjs.obj
 0001:000049d0       ?virtualAllocEx@@YAXAEBV?$FunctionCallbackInfo@VValue@v8@@@v8@@@Z 00000001800059d0 f   memoryjs.obj
 0001:00004dd0       ?init@@YAXV?$Local@VObject@v8@@@v8@@@Z 0000000180005dd0 f   memoryjs.obj
 0001:00004f10       ?assign@?$basic_string@DU?$char_traits@D@std@@V?$allocator@D@2@@std@@QEAAAEAV12@QEBD_K@Z 0000000180005f10 f i memoryjs.obj
 0001:00005060       ?_Xlength@?$vector@PEAXV?$allocator@PEAX@std@@@std@@CAXXZ 0000000180006060 f i memoryjs.obj
 0001:00005060       ?_Xlength@?$vector@UtagPROCESSENTRY32@@V?$allocator@UtagPROCESSENTRY32@@@std@@@std@@CAXXZ 0000000180006060 f i process.obj
 0001:00005060       ?_Xlength@?$vector@UtagMODULEENTRY32@@V?$allocator@UtagMODULEENTRY32@@@std@@@std@@CAXXZ 0000000180006060 f i module.obj
 0001:00005060       ?_Xlength@?$vector@UArg@@V?$allocator@UArg@@@std@@@std@@CAXXZ 0000000180006060 f i memoryjs.obj
 0001:00005060       ?_Xlength@?$vector@DV?$allocator@D@std@@@std@@CAXXZ 0000000180006060 f i memoryjs.obj
 0001:00005060       ?_Xlength@?$vector@EV?$allocator@E@std@@@std@@CAXXZ 0000000180006060 f i memoryjs.obj
 0001:00005080       ??$call@H@functions@@YA?AUCall@@PEAXV?$vector@UArg@@V?$allocator@UArg@@@std@@@std@@W4Type@@_KPEAPEAD@Z 0000000180006080 f i memoryjs.obj
 0001:00005b40       ??$_Emplace_reallocate@AEBQEAX@?$vector@PEAXV?$allocator@PEAX@std@@@std@@QEAAPEAPEAXQEAPEAXAEBQEAX@Z 0000000180006b40 f i memoryjs.obj
 0001:00005ce0       ??$_Emplace_reallocate@AEBD@?$vector@DV?$allocator@D@std@@@std@@QEAAPEADQEADAEBD@Z 0000000180006ce0 f i memoryjs.obj
 0001:00005ce0       ??$_Emplace_reallocate@AEBE@?$vector@EV?$allocator@E@std@@@std@@QEAAPEAEQEAEAEBE@Z 0000000180006ce0 f i memoryjs.obj
 0001:00005ce0       ??$_Emplace_reallocate@E@?$vector@EV?$allocator@E@std@@@std@@QEAAPEAEQEAE$$QEAE@Z 0000000180006ce0 f i memoryjs.obj
 0001:00005e60       ??$_Emplace_reallocate@UArg@@@?$vector@UArg@@V?$allocator@UArg@@@std@@@std@@QEAAPEAUArg@@QEAU2@$$QEAU2@@Z 0000000180006e60 f i memoryjs.obj
 0001:00006000       ?_Xlen@?$basic_string@DU?$char_traits@D@std@@V?$allocator@D@2@@std@@SAXXZ 0000000180007000 f i memoryjs.obj
 0001:00006020       ?_Xrange@?$vector@EV?$allocator@E@std@@@std@@CAXXZ 0000000180007020 f i memoryjs.obj
 0001:00006040       ??$_Insert_range@PEAE@?$vector@EV?$allocator@E@std@@@std@@AEAAXV?$_Vector_const_iterator@V?$_Vector_val@U?$_Simple_types@E@std@@@std@@@1@PEAE1Uforward_iterator_tag@1@@Z 0000000180007040 f i memoryjs.obj
 0001:00006270       ?getProcesses@process@@QEAA?AV?$vector@UtagPROCESSENTRY32@@V?$allocator@UtagPROCESSENTRY32@@@std@@@std@@PEAPEAD@Z 0000000180007270 f   process.obj
 0001:000063d0       ??$_Emplace_reallocate@AEBUtagPROCESSENTRY32@@@?$vector@UtagPROCESSENTRY32@@V?$allocator@UtagPROCESSENTRY32@@@std@@@std@@QEAAPEAUtagPROCESSENTRY32@@QEAU2@AEBU2@@Z 00000001800073d0 f i process.obj
 0001:00006640       ?findModule@module@@QEAA?AUtagMODULEENTRY32@@PEBDKPEAPEAD@Z 0000000180007640 f   module.obj
 0001:00006800       ?getModules@module@@QEAA?AV?$vector@UtagMODULEENTRY32@@V?$allocator@UtagMODULEENTRY32@@@std@@@std@@KPEAPEAD@Z 0000000180007800 f   module.obj
 0001:00006970       ??$_Emplace_reallocate@AEBUtagMODULEENTRY32@@@?$vector@UtagMODULEENTRY32@@V?$allocator@UtagMODULEENTRY32@@@std@@@std@@QEAAPEAUtagMODULEENTRY32@@QEAU2@AEBU2@@Z 0000000180007970 f i module.obj
 0001:00006be0       ?findPattern@pattern@@QEAA_KPEAXUtagMODULEENTRY32@@PEBDF_K3@Z 0000000180007be0 f   pattern.obj
 0001:00006e3c       __imp_load_?ThrowException@Isolate@v8@@QEAA?AV?$Local@VValue@v8@@@2@V32@@Z 0000000180007e3c f   node:node.exe
 0001:00006e48       __tailMerge_node_exe       0000000180007e48     node:node.exe
 0001:00006ec1       __imp_load_?GetCurrentContext@Isolate@v8@@QEAA?AV?$Local@VContext@v8@@@2@XZ 0000000180007ec1 f   node:node.exe
 0001:00006ecd       __imp_load_?GetCurrent@Isolate@v8@@SAPEAV12@XZ 0000000180007ecd f   node:node.exe
 0001:00006ed9       __imp_load_??1HandleScope@v8@@QEAA@XZ 0000000180007ed9 f   node:node.exe
 0001:00006ee5       __imp_load_??0HandleScope@v8@@QEAA@PEAVIsolate@1@@Z 0000000180007ee5 f   node:node.exe
 0001:00006ef1       __imp_load_?TypeError@Exception@v8@@SA?AV?$Local@VValue@v8@@@2@V?$Local@VString@v8@@@2@@Z 0000000180007ef1 f   node:node.exe
 0001:00006efd       __imp_load_?New@Array@v8@@SA?AV?$Local@VArray@v8@@@2@PEAVIsolate@2@H@Z 0000000180007efd f   node:node.exe
 0001:00006f09       __imp_load_?Length@Array@v8@@QEBAIXZ 0000000180007f09 f   node:node.exe
 0001:00006f15       __imp_load_?GetFunction@FunctionTemplate@v8@@QEAA?AV?$MaybeLocal@VFunction@v8@@@2@V?$Local@VContext@v8@@@2@@Z 0000000180007f15 f   node:node.exe
 0001:00006f21       __imp_load_?New@FunctionTemplate@v8@@SA?AV?$Local@VFunctionTemplate@v8@@@2@PEAVIsolate@2@P6AXAEBV?$FunctionCallbackInfo@VValue@v8@@@2@@ZV?$Local@VValue@v8@@@2@V?$Local@VSignature@v8@@@2@HW4ConstructorBehavior@2@W4SideEffectType@2@@Z 0000000180007f21 f   node:node.exe
 0001:00006f2d       __imp_load_?ToLocalEmpty@V8@v8@@CAXXZ 0000000180007f2d f   node:node.exe
 0001:00006f39       __imp_load_?Int32Value@Value@v8@@QEBAHXZ 0000000180007f39 f   node:node.exe
 0001:00006f45       __imp_load_?Uint32Value@Value@v8@@QEBAIXZ 0000000180007f45 f   node:node.exe
 0001:00006f51       __imp_load_?IntegerValue@Value@v8@@QEBA_JXZ 0000000180007f51 f   node:node.exe
 0001:00006f5d       __imp_load_?NumberValue@Value@v8@@QEBANXZ 0000000180007f5d f   node:node.exe
 0001:00006f69       __imp_load_?BooleanValue@Value@v8@@QEBA_NXZ 0000000180007f69 f   node:node.exe
 0001:00006f75       __imp_load_?IsNumber@Value@v8@@QEBA_NXZ 0000000180007f75 f   node:node.exe
 0001:00006f81       __imp_load_?IsObject@Value@v8@@QEBA_NXZ 0000000180007f81 f   node:node.exe
 0001:00006f8d       __imp_load_?IsFunction@Value@v8@@QEBA_NXZ 0000000180007f8d f   node:node.exe
 0001:00006f99       __imp_load_??1Utf8Value@String@v8@@QEAA@XZ 0000000180007f99 f   node:node.exe
 0001:00006fa5       __imp_load_??0Utf8Value@String@v8@@QEAA@V?$Local@VValue@v8@@@2@@Z 0000000180007fa5 f   node:node.exe
 0001:00006fb1       __imp_load_?NewFromUtf8@String@v8@@SA?AV?$Local@VString@v8@@@2@PEAVIsolate@2@PEBDW4NewStringType@12@H@Z 0000000180007fb1 f   node:node.exe
 0001:00006fbd       __imp_load_?NewFromUtf8@String@v8@@SA?AV?$MaybeLocal@VString@v8@@@2@PEAVIsolate@2@PEBDW4NewStringType@2@H@Z 0000000180007fbd f   node:node.exe
 0001:00006fc9       __imp_load_?New@Number@v8@@SA?AV?$Local@VNumber@v8@@@2@PEAVIsolate@2@N@Z 0000000180007fc9 f   node:node.exe
 0001:00006fd5       __imp_load_?New@Object@v8@@SA?AV?$Local@VObject@v8@@@2@PEAVIsolate@2@@Z 0000000180007fd5 f   node:node.exe
 0001:00006fe1       __imp_load_?Get@Object@v8@@QEAA?AV?$Local@VValue@v8@@@2@V32@@Z 0000000180007fe1 f   node:node.exe
 0001:00006fed       __imp_load_?Get@Object@v8@@QEAA?AV?$Local@VValue@v8@@@2@I@Z 0000000180007fed f   node:node.exe
 0001:00006ff9       __imp_load_?Set@Object@v8@@QEAA_NV?$Local@VValue@v8@@@2@0@Z 0000000180007ff9 f   node:node.exe
 0001:00007005       __imp_load_?Set@Object@v8@@QEAA_NIV?$Local@VValue@v8@@@2@@Z 0000000180008005 f   node:node.exe
 0001:00007011       __imp_load_?SetName@Function@v8@@QEAAXV?$Local@VString@v8@@@2@@Z 0000000180008011 f   node:node.exe
 0001:0000701d       __imp_load_?Call@Function@v8@@QEAA?AV?$Local@VValue@v8@@@2@V32@HQEAV32@@Z 000000018000801d f   node:node.exe
 0001:00007029       __imp_load_node_module_register 0000000180008029 f   node:node.exe
 0001:00007035       __imp_load_?New@Buffer@node@@YA?AV?$MaybeLocal@VObject@v8@@@v8@@PEAVIsolate@4@PEAD_K@Z 0000000180008035 f   node:node.exe
 0001:00007041       __imp_load_?Data@Buffer@node@@YAPEADV?$Local@VValue@v8@@@v8@@@Z 0000000180008041 f   node:node.exe
 0001:0000704d       __imp_load_?Length@Buffer@node@@YA_KV?$Local@VValue@v8@@@v8@@@Z 000000018000804d f   node:node.exe
 0001:00007059       __imp_load_?ToString@Value@v8@@QEBA?AV?$Local@VString@v8@@@2@XZ 0000000180008059 f   node:node.exe
 0001:00007068       ??0bad_alloc@std@@QEAA@AEBV01@@Z 0000000180008068 f i libcpmt:xthrow.obj
 0001:000070a8       ??0bad_alloc@std@@QEAA@XZ  00000001800080a8 f i libcpmt:xthrow.obj
 0001:000070c8       ??0exception@std@@QEAA@AEBV01@@Z 00000001800080c8 f i libcpmt:xthrow.obj
 0001:00007100       ??0length_error@std@@QEAA@AEBV01@@Z 0000000180008100 f i libcpmt:xthrow.obj
 0001:00007140       ??0length_error@std@@QEAA@PEBD@Z 0000000180008140 f i libcpmt:xthrow.obj
 0001:0000718c       ??0logic_error@std@@QEAA@AEBV01@@Z 000000018000818c f i libcpmt:xthrow.obj
 0001:000071cc       ??0out_of_range@std@@QEAA@AEBV01@@Z 00000001800081cc f i libcpmt:xthrow.obj
 0001:0000720c       ??0out_of_range@std@@QEAA@PEBD@Z 000000018000820c f i libcpmt:xthrow.obj
 0001:00007258       ??1bad_alloc@std@@UEAA@XZ  0000000180008258 f i libcpmt:xthrow.obj
 0001:00007258       ??1length_error@std@@UEAA@XZ 0000000180008258 f i libcpmt:xthrow.obj
 0001:00007258       ??1bad_array_new_length@std@@UEAA@XZ 0000000180008258 f i LIBCMT:throw_bad_alloc.obj
 0001:00007258       ??1out_of_range@std@@UEAA@XZ 0000000180008258 f i libcpmt:xthrow.obj
 0001:0000726c       ??_Eexception@std@@UEAAPEAXI@Z 000000018000826c f i libcpmt:xthrow.obj
 0001:0000726c       ??_Eout_of_range@std@@UEAAPEAXI@Z 000000018000826c f i libcpmt:xthrow.obj
 0001:0000726c       ??_Elength_error@std@@UEAAPEAXI@Z 000000018000826c f i libcpmt:xthrow.obj
 0001:0000726c       ??_Ebad_alloc@std@@UEAAPEAXI@Z 000000018000826c f i libcpmt:xthrow.obj
 0001:0000726c       ??_Gbad_alloc@std@@UEAAPEAXI@Z 000000018000826c f i libcpmt:xthrow.obj
 0001:0000726c       ??_Gexception@std@@UEAAPEAXI@Z 000000018000826c f i libcpmt:xthrow.obj
 0001:0000726c       ??_Glength_error@std@@UEAAPEAXI@Z 000000018000826c f i libcpmt:xthrow.obj
 0001:0000726c       ??_Gbad_array_new_length@std@@UEAAPEAXI@Z 000000018000826c f i LIBCMT:throw_bad_alloc.obj
 0001:0000726c       ??_Ebad_array_new_length@std@@UEAAPEAXI@Z 000000018000826c f i LIBCMT:throw_bad_alloc.obj
 0001:0000726c       ??_Elogic_error@std@@UEAAPEAXI@Z 000000018000826c f i libcpmt:xthrow.obj
 0001:0000726c       ??_Glogic_error@std@@UEAAPEAXI@Z 000000018000826c f i libcpmt:xthrow.obj
 0001:0000726c       ??_Gout_of_range@std@@UEAAPEAXI@Z 000000018000826c f i libcpmt:xthrow.obj
 0001:000072b0       ?_Xlength_error@std@@YAXPEBD@Z 00000001800082b0 f   libcpmt:xthrow.obj
 0001:000072d4       ?_Xout_of_range@std@@YAXPEBD@Z 00000001800082d4 f   libcpmt:xthrow.obj
 0001:000072f8       ?what@exception@std@@UEBAPEBDXZ 00000001800082f8 f i libcpmt:xthrow.obj
 0001:00007320       __security_check_cookie    0000000180008320 f   LIBCMT:amdsecgs.obj
 0001:00007344       ??2@YAPEAX_K@Z             0000000180008344 f   LIBCMT:new_scalar.obj
 0001:00007380       __scrt_acquire_startup_lock 0000000180008380 f   LIBCMT:utility.obj
 0001:000073bc       __scrt_dllmain_after_initialize_c 00000001800083bc f   LIBCMT:utility.obj
 0001:000073f0       __scrt_dllmain_before_initialize_c 00000001800083f0 f   LIBCMT:utility.obj
 0001:00007408       __scrt_dllmain_crt_thread_attach 0000000180008408 f   LIBCMT:utility.obj
 0001:00007430       __scrt_dllmain_crt_thread_detach 0000000180008430 f   LIBCMT:utility.obj
 0001:00007448       __scrt_dllmain_exception_filter 0000000180008448 f   LIBCMT:utility.obj
 0001:000074a8       __scrt_dllmain_uninitialize_c 00000001800084a8 f   LIBCMT:utility.obj
 0001:000074d8       __scrt_dllmain_uninitialize_critical 00000001800084d8 f   LIBCMT:utility.obj
 0001:000074ec       __scrt_initialize_crt      00000001800084ec f   LIBCMT:utility.obj
 0001:00007538       __scrt_initialize_onexit_tables 0000000180008538 f   LIBCMT:utility.obj
 0001:00007610       __scrt_is_nonwritable_in_current_image 0000000180008610 f   LIBCMT:utility.obj
 0001:000076ac       __scrt_release_startup_lock 00000001800086ac f   LIBCMT:utility.obj
 0001:000076d0       __scrt_uninitialize_crt    00000001800086d0 f   LIBCMT:utility.obj
 0001:000076fc       _onexit                    00000001800086fc f   LIBCMT:utility.obj
 0001:0000774c       atexit                     000000018000874c f   LIBCMT:utility.obj
 0001:00007764       ??3@YAXPEAX_K@Z            0000000180008764 f   LIBCMT:delete_scalar_size.obj
 0001:0000776c       ??_U@YAPEAX_K@Z            000000018000876c f   LIBCMT:new_array.obj
 0001:00007774       ??_Etype_info@@UEAAPEAXI@Z 0000000180008774 f i LIBCMT:std_type_info_static.obj
 0001:00007774       ??_Gtype_info@@UEAAPEAXI@Z 0000000180008774 f i LIBCMT:std_type_info_static.obj
 0001:00007ad0       _DllMainCRTStartup         0000000180008ad0 f   LIBCMT:dll_dllmain.obj
 0001:00007b10       __raise_securityfailure    0000000180008b10 f   LIBCMT:gs_report.obj
 0001:00007b44       __report_gsfailure         0000000180008b44 f   LIBCMT:gs_report.obj
 0001:00007c18       __report_rangecheckfailure 0000000180008c18 f   LIBCMT:gs_report.obj
 0001:00007c2c       __report_securityfailure   0000000180008c2c f   LIBCMT:gs_report.obj
 0001:00007dac       ??0bad_array_new_length@std@@QEAA@AEBV01@@Z 0000000180008dac f i LIBCMT:throw_bad_alloc.obj
 0001:00007dec       ??0bad_array_new_length@std@@QEAA@XZ 0000000180008dec f i LIBCMT:throw_bad_alloc.obj
 0001:00007e0c       ?__scrt_throw_std_bad_alloc@@YAXXZ 0000000180008e0c f   LIBCMT:throw_bad_alloc.obj
 0001:00007e2c       ?__scrt_throw_std_bad_array_new_length@@YAXXZ 0000000180008e2c f   LIBCMT:throw_bad_alloc.obj
 0001:00007e4c       __isa_available_init       0000000180008e4c f   LIBCMT:cpu_disp.obj
 0001:00008008       DllMain                    0000000180009008 f   LIBCMT:dll_dllmain_stub.obj
 0001:00008008       _get_startup_argv_mode     0000000180009008 f   LIBCMT:argv_mode.obj
 0001:00008010       __scrt_is_ucrt_dll_in_use  0000000180009010 f   LIBCMT:ucrt_detection.obj
 0001:0000801c       __crt_debugger_hook        000000018000901c f   LIBCMT:utility_desktop.obj
 0001:00008024       __scrt_fastfail            0000000180009024 f   LIBCMT:utility_desktop.obj
 0001:00008170       _guard_check_icall_nop     0000000180009170 f i LIBCMT:guard_support.obj
 0001:00008174       ??3@YAXPEAX@Z              0000000180009174 f   LIBCMT:delete_scalar.obj
 0001:0000817c       __security_init_cookie     000000018000917c f   LIBCMT:gs_support.obj
 0001:00008228       ?__scrt_initialize_type_info@@YAXXZ 0000000180009228 f   LIBCMT:tncleanup.obj
 0001:00008238       ?__scrt_uninitialize_type_info@@YAXXZ 0000000180009238 f   LIBCMT:tncleanup.obj
 0001:00008244       __local_stdio_printf_options 0000000180009244 f i LIBCMT:default_local_stdio_options.obj
 0001:0000824c       __local_stdio_scanf_options 000000018000924c f i LIBCMT:default_local_stdio_options.obj
 0001:00008254       __scrt_initialize_default_local_stdio_options 0000000180009254 f   LIBCMT:default_local_stdio_options.obj
 0001:00008270       __scrt_get_dyn_tls_init_callback 0000000180009270 f   LIBCMT:dyn_tls_init.obj
 0001:00008278       _RTC_Initialize            0000000180009278 f   LIBCMT:initsect.obj
 0001:000082b4       _RTC_Terminate             00000001800092b4 f   LIBCMT:initsect.obj
 0001:000082f0       __std_type_info_compare    00000001800092f0 f   libvcruntime:std_type_info.obj
 0001:00008318       __std_type_info_destroy_list 0000000180009318 f   libvcruntime:std_type_info.obj
 0001:00008344       __std_exception_copy       0000000180009344 f   libvcruntime:std_exception.obj
 0001:000083d4       __std_exception_destroy    00000001800093d4 f   libvcruntime:std_exception.obj
 0001:000083fc       _CxxThrowException         00000001800093fc f   libvcruntime:throw.obj
 0001:000084bc       __vcrt_initialize          00000001800094bc f   libvcruntime:initialization.obj
 0001:000084f0       __vcrt_thread_attach       00000001800094f0 f   libvcruntime:initialization.obj
 0001:00008504       __vcrt_thread_detach       0000000180009504 f   libvcruntime:initialization.obj
 0001:00008518       __vcrt_uninitialize        0000000180009518 f   libvcruntime:initialization.obj
 0001:00008538       __vcrt_uninitialize_critical 0000000180009538 f   libvcruntime:initialization.obj
 0001:00008548       __C_specific_handler       0000000180009548 f   libvcruntime:riscchandler.obj
 0001:00008770       memset_repmovs             0000000180009770 f   libvcruntime:memset.obj
 0001:00008790       memset                     0000000180009790 f   libvcruntime:memset.obj
 0001:00008920       __vcrt_freefls             0000000180009920 f   libvcruntime:per_thread_data.obj
 0001:00008940       __vcrt_freeptd             0000000180009940 f   libvcruntime:per_thread_data.obj
 0001:00008990       __vcrt_getptd_noexit       0000000180009990 f   libvcruntime:per_thread_data.obj
 0001:00008a5c       __vcrt_initialize_ptd      0000000180009a5c f   libvcruntime:per_thread_data.obj
 0001:00008ab0       __vcrt_uninitialize_ptd    0000000180009ab0 f   libvcruntime:per_thread_data.obj
 0001:00008ad4       __vcrt_initialize_locks    0000000180009ad4 f   libvcruntime:locks.obj
 0001:00008b1c       __vcrt_uninitialize_locks  0000000180009b1c f   libvcruntime:locks.obj
 0001:00008d2c       __vcrt_FlsAlloc            0000000180009d2c f   libvcruntime:winapi_downlevel.obj
 0001:00008d74       __vcrt_FlsFree             0000000180009d74 f   libvcruntime:winapi_downlevel.obj
 0001:00008dbc       __vcrt_FlsGetValue         0000000180009dbc f   libvcruntime:winapi_downlevel.obj
 0001:00008e04       __vcrt_FlsSetValue         0000000180009e04 f   libvcruntime:winapi_downlevel.obj
 0001:00008e58       __vcrt_InitializeCriticalSectionEx 0000000180009e58 f   libvcruntime:winapi_downlevel.obj
 0001:00008ebc       __vcrt_initialize_winapi_thunks 0000000180009ebc f   libvcruntime:winapi_downlevel.obj
 0001:00008eec       __vcrt_uninitialize_winapi_thunks 0000000180009eec f   libvcruntime:winapi_downlevel.obj
 0001:00008f2c       __vcrt_initialize_pure_virtual_call_handler 0000000180009f2c f   libvcruntime:purevirt_data.obj
 0001:00008f50       _NLG_Notify                0000000180009f50 f   libvcruntime:notify.obj
 0001:00008f70       __NLG_Dispatch2            0000000180009f70 f   libvcruntime:notify.obj
 0001:00008f80       __NLG_Return2              0000000180009f80 f   libvcruntime:notify.obj
 0001:00008f84       __except_validate_context_record 0000000180009f84 f   libvcruntime:jbcxrval.obj
 0001:00008fbc       __DestructExceptionObject  0000000180009fbc f   libvcruntime:ehhelpers.obj
 0001:00009030       ?_CallMemberFunction0@@YAXQEAX0@Z 000000018000a030 f i libvcruntime:ehhelpers.obj
 0001:00009050       memcpy_repmovs             000000018000a050 f   libvcruntime:memcpy.obj
 0001:00009070       memcpy                     000000018000a070 f   libvcruntime:memcpy.obj
 0001:00009070       memmove                    000000018000a070 f   libvcruntime:memcpy.obj
 0001:000094c0       _CallSettingFrame          000000018000a4c0 f   libvcruntime:handlers.obj
 0001:00009510       _CallSettingFrameEncoded   000000018000a510 f   libvcruntime:handlers.obj
 0001:00009558       free                       000000018000a558 f   libucrt:free.obj
 0001:0000956c       _fgetc_nolock              000000018000a56c f   libucrt:fgetc.obj
 0001:000095b0       fgetc                      000000018000a5b0 f   libucrt:fgetc.obj
 0001:000096ac       getchar                    000000018000a6ac f   libucrt:fgetc.obj
 0001:000096c4       __acrt_call_reportfault    000000018000a6c4 f   libucrt:invalid_parameter.obj
 0001:00009820       __acrt_initialize_invalid_parameter_handler 000000018000a820 f   libucrt:invalid_parameter.obj
 0001:00009828       _invalid_parameter         000000018000a828 f   libucrt:invalid_parameter.obj
 0001:000098d8       _invalid_parameter_noinfo  000000018000a8d8 f   libucrt:invalid_parameter.obj
 0001:000098f8       _invalid_parameter_noinfo_noreturn 000000018000a8f8 f   libucrt:invalid_parameter.obj
 0001:00009928       _invoke_watson             000000018000a928 f   libucrt:invalid_parameter.obj
 0001:00009970       malloc                     000000018000a970 f   libucrt:malloc.obj
 0001:00009978       ??0_LocaleUpdate@@QEAA@QEAU__crt_locale_pointers@@@Z 000000018000a978 f i libucrt:stricmp.obj
 0001:00009a08       __ascii_stricmp            000000018000aa08 f   libucrt:stricmp.obj
 0001:00009a48       _stricmp                   000000018000aa48 f   libucrt:stricmp.obj
 0001:00009a90       _stricmp_l                 000000018000aa90 f   libucrt:stricmp.obj
 0001:00009b44       __acrt_initialize_new_handler 000000018000ab44 f   libucrt:new_handler.obj
 0001:00009b4c       _callnewh                  000000018000ab4c f   libucrt:new_handler.obj
 0001:00009b7c       _query_new_handler         000000018000ab7c f   libucrt:new_handler.obj
 0001:00009bb0       _seh_filter_dll            000000018000abb0 f   libucrt:exception_filter.obj
 0001:00009bc4       _seh_filter_exe            000000018000abc4 f   libucrt:exception_filter.obj
 0001:00009fd0       __acrt_initialize_thread_local_exit_callback 000000018000afd0 f   libucrt:exit.obj
 0001:00009fd8       _cexit                     000000018000afd8 f   libucrt:exit.obj
 0001:00009fe8       _exit                      000000018000afe8 f   libucrt:exit.obj
 0001:00009ff4       _is_c_termination_complete 000000018000aff4 f   libucrt:exit.obj
 0001:0000a1b8       __acrt_allocate_buffer_for_argv 000000018000b1b8 f   libucrt:argv_parsing.obj
 0001:0000a218       _configure_narrow_argv     000000018000b218 f   libucrt:argv_parsing.obj
 0001:0000a594       __dcrt_uninitialize_environments_nolock 000000018000b594 f   libucrt:environment_initialization.obj
 0001:0000a5cc       _initialize_narrow_environment 000000018000b5cc f   libucrt:environment_initialization.obj
 0001:0000a95c       _crt_atexit                000000018000b95c f   libucrt:onexit.obj
 0001:0000a96c       _execute_onexit_table      000000018000b96c f   libucrt:onexit.obj
 0001:0000a9a8       _initialize_onexit_table   000000018000b9a8 f   libucrt:onexit.obj
 0001:0000a9e8       _register_onexit_function  000000018000b9e8 f   libucrt:onexit.obj
 0001:0000aa68       __acrt_uninitialize_command_line 000000018000ba68 f   libucrt:argv_data.obj
 0001:0000ab74       __acrt_initialize          000000018000bb74 f   libucrt:initialization.obj
 0001:0000ab88       __acrt_thread_attach       000000018000bb88 f   libucrt:initialization.obj
 0001:0000ab9c       __acrt_thread_detach       000000018000bb9c f   libucrt:initialization.obj
 0001:0000abac       __acrt_uninitialize        000000018000bbac f   libucrt:initialization.obj
 0001:0000abe4       __acrt_uninitialize_critical 000000018000bbe4 f   libucrt:initialization.obj
 0001:0000abf4       _initterm                  000000018000bbf4 f   libucrt:initterm.obj
 0001:0000ac58       _initterm_e                000000018000bc58 f   libucrt:initterm.obj
 0001:0000ac98       terminate                  000000018000bc98 f   libucrt:terminate.obj
 0001:0000acb8       strcpy_s                   000000018000bcb8 f   libucrt:strcpy_s.obj
 0001:0000ad30       strncmp                    000000018000bd30 f   libucrt:strncmp.obj
 0001:0000adb0       abort                      000000018000bdb0 f   libucrt:abort.obj
 0001:0000ae08       calloc                     000000018000be08 f   libucrt:calloc.obj
 0001:0000ae10       wcsncmp                    000000018000be10 f   libucrt:wcsncmp.obj
 0001:0000ae3c       _free_base                 000000018000be3c f   libucrt:free_base.obj
 0001:0000ae7c       __acrt_errno_from_os_error 000000018000be7c f   libucrt:errno.obj
 0001:0000aec4       __acrt_errno_map_os_error  000000018000bec4 f   libucrt:errno.obj
 0001:0000af14       __doserrno                 000000018000bf14 f   libucrt:errno.obj
 0001:0000af34       _errno                     000000018000bf34 f   libucrt:errno.obj
 0001:0000af54       __acrt_initialize_stdio    000000018000bf54 f   libucrt:_file.obj
 0001:0000b074       __acrt_iob_func            000000018000c074 f   libucrt:_file.obj
 0001:0000b088       __acrt_uninitialize_stdio  000000018000c088 f   libucrt:_file.obj
 0001:0000b0e4       _lock_file                 000000018000c0e4 f   libucrt:_file.obj
 0001:0000b0f0       _unlock_file               000000018000c0f0 f   libucrt:_file.obj
 0001:0000b0fc       _fileno                    000000018000c0fc f   libucrt:fileno.obj
 0001:0000b124       __acrt_stdio_refill_and_read_narrow_nolock 000000018000c124 f   libucrt:_filbuf.obj
 0001:0000b46c       __acrt_initialize_lowio    000000018000c46c f   libucrt:ioinit.obj
 0001:0000b4a8       __acrt_uninitialize_lowio  000000018000c4a8 f   libucrt:ioinit.obj
 0001:0000b860       __acrt_freeptd             000000018000c860 f   libucrt:per_thread_data.obj
 0001:0000b8a4       __acrt_getptd              000000018000c8a4 f   libucrt:per_thread_data.obj
 0001:0000b970       __acrt_getptd_head         000000018000c970 f   libucrt:per_thread_data.obj
 0001:0000ba18       __acrt_getptd_noexit       000000018000ca18 f   libucrt:per_thread_data.obj
 0001:0000bae8       __acrt_initialize_ptd      000000018000cae8 f   libucrt:per_thread_data.obj
 0001:0000bb24       __acrt_uninitialize_ptd    000000018000cb24 f   libucrt:per_thread_data.obj
 0001:0000bb48       _malloc_base               000000018000cb48 f   libucrt:malloc_base.obj
 0001:0000bbec       _tolower_l                 000000018000cbec f   libucrt:tolower_toupper.obj
 0001:0000bd2c       __acrt_update_locale_info  000000018000cd2c f   libucrt:locale_update.obj
 0001:0000bd60       __acrt_update_multibyte_info 000000018000cd60 f   libucrt:locale_update.obj
 0001:0000be04       __acrt_set_locale_changed  000000018000ce04 f   libucrt:wsetlocale.obj
 0001:0000be10       __acrt_uninitialize_locale 000000018000ce10 f   libucrt:wsetlocale.obj
 0001:0000be40       __acrt_initialize_locks    000000018000ce40 f   libucrt:locks.obj
 0001:0000be88       __acrt_lock                000000018000ce88 f   libucrt:locks.obj
 0001:0000bea4       __acrt_uninitialize_locks  000000018000cea4 f   libucrt:locks.obj
 0001:0000bedc       __acrt_unlock              000000018000cedc f   libucrt:locks.obj
 0001:0000bef8       __acrt_get_process_end_policy 000000018000cef8 f   libucrt:win_policies.obj
 0001:0000bf34       _calloc_base               000000018000cf34 f   libucrt:calloc_base.obj
 0001:0000c510       __acrt_expand_narrow_argv_wildcards 000000018000d510 f   libucrt:argv_wildcards.obj
 0001:0000cc58       __acrt_initialize_multibyte 000000018000dc58 f   libucrt:mbctype.obj
 0001:0000ccb8       __acrt_update_thread_multibyte_data 000000018000dcb8 f   libucrt:mbctype.obj
 0001:0000ccd4       _setmbcp_nolock            000000018000dcd4 f   libucrt:mbctype.obj
 0001:0000d00c       _ismbblead                 000000018000e00c f   libucrt:ismbbyte.obj
 0001:0000d020       __acrt_initialize_command_line 000000018000e020 f   libucrt:argv_data.obj
 0001:0000d048       __dcrt_get_narrow_environment_from_os 000000018000e048 f   libucrt:get_environment_from_os.obj
 0001:0000d14c       _recalloc                  000000018000e14c f   libucrt:recalloc.obj
 0001:0000d154       _recalloc_base             000000018000e154 f   libucrt:recalloc.obj
 0001:0000d3c4       __acrt_AppPolicyGetProcessTerminationMethodInternal 000000018000e3c4 f   libucrt:winapi_thunks.obj
 0001:0000d414       __acrt_FlsAlloc            000000018000e414 f   libucrt:winapi_thunks.obj
 0001:0000d45c       __acrt_FlsFree             000000018000e45c f   libucrt:winapi_thunks.obj
 0001:0000d4a4       __acrt_FlsGetValue         000000018000e4a4 f   libucrt:winapi_thunks.obj
 0001:0000d4ec       __acrt_FlsSetValue         000000018000e4ec f   libucrt:winapi_thunks.obj
 0001:0000d540       __acrt_InitializeCriticalSectionEx 000000018000e540 f   libucrt:winapi_thunks.obj
 0001:0000d5a4       __acrt_LCMapStringEx       000000018000e5a4 f   libucrt:winapi_thunks.obj
 0001:0000d680       __acrt_LocaleNameToLCID    000000018000e680 f   libucrt:winapi_thunks.obj
 0001:0000d6d0       __acrt_initialize_winapi_thunks 000000018000e6d0 f   libucrt:winapi_thunks.obj
 0001:0000d718       __acrt_uninitialize_winapi_thunks 000000018000e718 f   libucrt:winapi_thunks.obj
 0001:0000d75c       __acrt_initialize_heap     000000018000e75c f   libucrt:heap_handle.obj
 0001:0000d778       __acrt_uninitialize_heap   000000018000e778 f   libucrt:heap_handle.obj
 0001:0000d784       __acrt_execute_initializers 000000018000e784 f   libucrt:shared_initialization.obj
 0001:0000d804       __acrt_execute_uninitializers 000000018000e804 f   libucrt:shared_initialization.obj
 0001:0000d888       __acrt_get_sigabrt_handler 000000018000e888 f   libucrt:signal.obj
 0001:0000d8b8       __acrt_initialize_signal_handlers 000000018000e8b8 f   libucrt:signal.obj
 0001:0000d8d8       raise                      000000018000e8d8 f   libucrt:signal.obj
 0001:0000db4c       __acrt_has_user_matherr    000000018000eb4c f   libucrt:matherr.obj
 0001:0000db6c       __acrt_initialize_user_matherr 000000018000eb6c f   libucrt:matherr.obj
 0001:0000db74       __acrt_invoke_user_matherr 000000018000eb74 f   libucrt:matherr.obj
 0001:0000dd88       __acrt_stdio_flush_nolock  000000018000ed88 f   libucrt:fflush.obj
 0001:0000de04       _fflush_nolock             000000018000ee04 f   libucrt:fflush.obj
 0001:0000de50       _flushall                  000000018000ee50 f   libucrt:fflush.obj
 0001:0000de58       _mbtowc_l                  000000018000ee58 f   libucrt:mbtowc.obj
 0001:0000dfa0       mbtowc                     000000018000efa0 f   libucrt:mbtowc.obj
 0001:0000dfa8       __pctype_func              000000018000efa8 f   libucrt:ctype.obj
 0001:0000dfd8       _isctype_l                 000000018000efd8 f   libucrt:isctype.obj
 0001:0000e0e8       _fcloseall                 000000018000f0e8 f   libucrt:closeall.obj
 0001:0000e19c       __acrt_stdio_free_buffer_nolock 000000018000f19c f   libucrt:_freebuf.obj
 0001:0000e778       _read                      000000018000f778 f   libucrt:read.obj
 0001:0000e894       _read_nolock               000000018000f894 f   libucrt:read.obj
 0001:0000ed20       __acrt_stdio_allocate_buffer_nolock 000000018000fd20 f   libucrt:_getbuf.obj
 0001:0000ed84       __acrt_lowio_create_handle_array 000000018000fd84 f   libucrt:osfinfo.obj
 0001:0000ee1c       __acrt_lowio_destroy_handle_array 000000018000fe1c f   libucrt:osfinfo.obj
 0001:0000ee6c       __acrt_lowio_ensure_fh_exists 000000018000fe6c f   libucrt:osfinfo.obj
 0001:0000ef14       __acrt_lowio_lock_fh       000000018000ff14 f   libucrt:osfinfo.obj
 0001:0000ef38       __acrt_lowio_unlock_fh     000000018000ff38 f   libucrt:osfinfo.obj
 0001:0000ef5c       _free_osfhnd               000000018000ff5c f   libucrt:osfinfo.obj
 0001:0000f018       _get_osfhandle             0000000180010018 f   libucrt:osfinfo.obj
 0001:0000f090       __acrt_add_locale_ref      0000000180010090 f   libucrt:locale_refcounting.obj
 0001:0000f11c       __acrt_free_locale         000000018001011c f   libucrt:locale_refcounting.obj
 0001:0000f294       __acrt_locale_add_lc_time_reference 0000000180010294 f   libucrt:locale_refcounting.obj
 0001:0000f2bc       __acrt_locale_free_lc_time_if_unreferenced 00000001800102bc f   libucrt:locale_refcounting.obj
 0001:0000f2f4       __acrt_locale_release_lc_time_reference 00000001800102f4 f   libucrt:locale_refcounting.obj
 0001:0000f31c       __acrt_release_locale_ref  000000018001031c f   libucrt:locale_refcounting.obj
 0001:0000f3c4       __acrt_update_thread_locale_data 00000001800103c4 f   libucrt:locale_refcounting.obj
 0001:0000f434       _updatetlocinfoEx_nolock   0000000180010434 f   libucrt:locale_refcounting.obj
 0001:0000f49c       _query_new_mode            000000018001049c f   libucrt:new_mode.obj
 0001:0000f4a4       _isleadbyte_l              00000001800104a4 f i libucrt:_wctype.obj
 0001:0000f7fc       __acrt_LCMapStringA        00000001800107fc f   libucrt:lcmapstringa.obj
 0001:0000f894       __acrt_locale_free_monetary 0000000180010894 f   libucrt:initmon.obj
 0001:0000f9a0       __acrt_locale_free_numeric 00000001800109a0 f   libucrt:initnum.obj
 0001:0000fa60       __acrt_locale_free_time    0000000180010a60 f   libucrt:inittime.obj
 0001:0000fb68       __acrt_GetStringTypeA      0000000180010b68 f   libucrt:getstringtypea.obj
 0001:0000fd00       qsort                      0000000180010d00 f   libucrt:qsort.obj
 0001:000100b0       strncpy_s                  00000001800110b0 f   libucrt:strncpy_s.obj
 0001:00010230       strpbrk                    0000000180011230 f   libucrt:strpbrk.obj
 0001:00010610       _mbsdec                    0000000180011610 f   libucrt:mbsdec.obj
 0001:00010618       _mbsdec_l                  0000000180011618 f   libucrt:mbsdec.obj
 0001:000106c0       _msize                     00000001800116c0 f   libucrt:msize.obj
 0001:000106c8       _msize_base                00000001800116c8 f   libucrt:msize.obj
 0001:00010704       _realloc_base              0000000180011704 f   libucrt:realloc_base.obj
 0001:0001084c       __acrt_DownlevelLocaleNameToLCID 000000018001184c f   libucrt:lcidtoname_downlevel.obj
 0001:0001090c       _commit                    000000018001190c f   libucrt:commit.obj
 0001:00010f58       _write                     0000000180011f58 f   libucrt:write.obj
 0001:00011044       _write_nolock              0000000180012044 f   libucrt:write.obj
 0001:00011388       _isatty                    0000000180012388 f   libucrt:isatty.obj
 0001:000113e8       __acrt_MultiByteToWideChar 00000001800123e8 f   libucrt:multibytetowidechar.obj
 0001:000113f0       _fclose_nolock             00000001800123f0 f   libucrt:fclose.obj
 0001:00011474       fclose                     0000000180012474 f   libucrt:fclose.obj
 0001:00011574       _lseeki64_nolock           0000000180012574 f   libucrt:lseek.obj
 0001:0001157c       _query_app_type            000000018001257c f   libucrt:report_runtime_error.obj
 0001:00011584       __strncnt                  0000000180012584 f   libucrt:strncnt.obj
 0001:0001159c       _putwch_nolock             000000018001259c f   libucrt:putwch.obj
 0001:000115e0       log10                      00000001800125e0 f   libucrt:log10.obj
 0001:00011c00       _close                     0000000180012c00 f   libucrt:close.obj
 0001:00011ca4       _close_nolock              0000000180012ca4 f   libucrt:close.obj
 0001:00011d60       ?__acrt_stdio_free_stream@@YAXV__crt_stdio_stream@@@Z 0000000180012d60 f   libucrt:stream.obj
 0001:00011d7c       __dcrt_lowio_ensure_console_output_initialized 0000000180012d7c f   libucrt:initcon.obj
 0001:00011dd0       __dcrt_terminate_console_output 0000000180012dd0 f   libucrt:initcon.obj
 0001:00011dec       __dcrt_write_console_w     0000000180012dec f   libucrt:initcon.obj
 0001:00011fd0       _handle_error              0000000180012fd0 f   libucrt:libm_error.obj
 0001:00012100       __acrt_initialize_fma3     0000000180013100 f   libucrt:fma3_available.obj
 0001:00012170       _log10_special             0000000180013170 f   libucrt:log_special.obj
 0001:00012240       _get_fpsr                  0000000180013240 f   libucrt:fpsr.obj
 0001:00012250       _set_fpsr                  0000000180013250 f   libucrt:fpsr.obj
 0001:0001225a       _fclrf                     000000018001325a f   libucrt:fpsr.obj
 0001:0001226e       _frnd                      000000018001326e f   libucrt:fpsr.obj
 0001:00012290       _raise_exc                 0000000180013290 f   libucrt:fpexcept.obj
 0001:000122b8       _raise_exc_ex              00000001800132b8 f   libucrt:fpexcept.obj
 0001:000125c0       _set_errno_from_matherr    00000001800135c0 f   libucrt:fpexcept.obj
 0001:000125f0       _clrfp                     00000001800135f0 f   libucrt:fpctrl.obj
 0001:00012610       _ctrlfp                    0000000180013610 f   libucrt:fpctrl.obj
 0001:0001268c       _set_statfp                000000018001368c f   libucrt:fpctrl.obj
 0001:000126ac       _statfp                    00000001800136ac f   libucrt:fpctrl.obj
 0001:000126bd       IsProcessorFeaturePresent  00000001800136bd f   kernel32:KERNEL32.dll
 0001:000126c4       ?DloadAcquireSectionWriteAccess@@YAXXZ 00000001800136c4 f i DelayImp:delayhlp.obj
 0001:00012770       ?DloadGetSRWLockFunctionPointers@@YAEXZ 0000000180013770 f i DelayImp:delayhlp.obj
 0001:0001280c       ?DloadMakePermanentImageCommit@@YAXPEAX_K@Z 000000018001380c f i DelayImp:delayhlp.obj
 0001:000128a4       ?DloadObtainSection@@YAPEAXPEAK0@Z 00000001800138a4 f i DelayImp:delayhlp.obj
 0001:00012940       ?DloadProtectSection@@YAXKPEAK@Z 0000000180013940 f i DelayImp:delayhlp.obj
 0001:000129d0       ?DloadReleaseSectionWriteAccess@@YAXXZ 00000001800139d0 f i DelayImp:delayhlp.obj
 0001:00012a64       __delayLoadHelper2         0000000180013a64 f   DelayImp:delayhlp.obj
 0001:00012d30       _FindPESection             0000000180013d30 f   LIBCMT:pesect.obj
 0001:00012d80       _IsNonwritableInCurrentImage 0000000180013d80 f   LIBCMT:pesect.obj
 0001:00012dd0       _ValidateImageBase         0000000180013dd0 f   LIBCMT:pesect.obj
 0001:00012e00       __GSHandlerCheck           0000000180013e00 f   LIBCMT:gshandler.obj
 0001:00012e20       __GSHandlerCheckCommon     0000000180013e20 f   LIBCMT:gshandler.obj
 0001:00012e90       _alloca_probe              0000000180013e90 f   LIBCMT:chkstk.obj
 0001:00012e90       __chkstk                   0000000180013e90 f   LIBCMT:chkstk.obj
 0001:00012ee4       _local_unwind              0000000180013ee4 f   libvcruntime:jmpuwind.obj
 0001:00012f20       memcmp                     0000000180013f20 f   libvcruntime:memcmp.obj
 0001:00013000       _guard_dispatch_icall_nop  0000000180014000 f   LIBCMT:guard_dispatch.obj
 0002:00000000       __imp_WriteProcessMemory   0000000180015000     kernel32:KERNEL32.dll
 0002:00000008       __imp_GetProcessId         0000000180015008     kernel32:KERNEL32.dll
 0002:00000010       __imp_WaitForSingleObject  0000000180015010     kernel32:KERNEL32.dll
 0002:00000018       __imp_GetExitCodeThread    0000000180015018     kernel32:KERNEL32.dll
 0002:00000020       __imp_GetLastError         0000000180015020     kernel32:KERNEL32.dll
 0002:00000028       __imp_VirtualProtectEx     0000000180015028     kernel32:KERNEL32.dll
 0002:00000030       __imp_VirtualAllocEx       0000000180015030     kernel32:KERNEL32.dll
 0002:00000038       __imp_ReadProcessMemory    0000000180015038     kernel32:KERNEL32.dll
 0002:00000040       __imp_CreateRemoteThread   0000000180015040     kernel32:KERNEL32.dll
 0002:00000048       __imp_VirtualFreeEx        0000000180015048     kernel32:KERNEL32.dll
 0002:00000050       __imp_Process32First       0000000180015050     kernel32:KERNEL32.dll
 0002:00000058       __imp_OpenProcess          0000000180015058     kernel32:KERNEL32.dll
 0002:00000060       __imp_CreateToolhelp32Snapshot 0000000180015060     kernel32:KERNEL32.dll
 0002:00000068       __imp_Process32Next        0000000180015068     kernel32:KERNEL32.dll
 0002:00000070       __imp_CloseHandle          0000000180015070     kernel32:KERNEL32.dll
 0002:00000078       __imp_Module32Next         0000000180015078     kernel32:KERNEL32.dll
 0002:00000080       __imp_Module32First        0000000180015080     kernel32:KERNEL32.dll
 0002:00000088       __imp_GetModuleHandleA     0000000180015088     kernel32:KERNEL32.dll
 0002:00000090       __imp_LoadLibraryExA       0000000180015090     kernel32:KERNEL32.dll
 0002:00000098       __imp_RtlCaptureContext    0000000180015098     kernel32:KERNEL32.dll
 0002:000000a0       __imp_RtlLookupFunctionEntry 00000001800150a0     kernel32:KERNEL32.dll
 0002:000000a8       __imp_RtlVirtualUnwind     00000001800150a8     kernel32:KERNEL32.dll
 0002:000000b0       __imp_UnhandledExceptionFilter 00000001800150b0     kernel32:KERNEL32.dll
 0002:000000b8       __imp_SetUnhandledExceptionFilter 00000001800150b8     kernel32:KERNEL32.dll
 0002:000000c0       __imp_GetCurrentProcess    00000001800150c0     kernel32:KERNEL32.dll
 0002:000000c8       __imp_TerminateProcess     00000001800150c8     kernel32:KERNEL32.dll
 0002:000000d0       __imp_IsProcessorFeaturePresent 00000001800150d0     kernel32:KERNEL32.dll
 0002:000000d8       __imp_IsDebuggerPresent    00000001800150d8     kernel32:KERNEL32.dll
 0002:000000e0       __imp_GetStartupInfoW      00000001800150e0     kernel32:KERNEL32.dll
 0002:000000e8       __imp_GetModuleHandleW     00000001800150e8     kernel32:KERNEL32.dll
 0002:000000f0       __imp_QueryPerformanceCounter 00000001800150f0     kernel32:KERNEL32.dll
 0002:000000f8       __imp_GetCurrentProcessId  00000001800150f8     kernel32:KERNEL32.dll
 0002:00000100       __imp_GetCurrentThreadId   0000000180015100     kernel32:KERNEL32.dll
 0002:00000108       __imp_GetSystemTimeAsFileTime 0000000180015108     kernel32:KERNEL32.dll
 0002:00000110       __imp_InitializeSListHead  0000000180015110     kernel32:KERNEL32.dll
 0002:00000118       __imp_InterlockedFlushSList 0000000180015118     kernel32:KERNEL32.dll
 0002:00000120       __imp_RtlPcToFileHeader    0000000180015120     kernel32:KERNEL32.dll
 0002:00000128       __imp_RaiseException       0000000180015128     kernel32:KERNEL32.dll
 0002:00000130       __imp_RtlUnwindEx          0000000180015130     kernel32:KERNEL32.dll
 0002:00000138       __imp_SetLastError         0000000180015138     kernel32:KERNEL32.dll
 0002:00000140       __imp_EnterCriticalSection 0000000180015140     kernel32:KERNEL32.dll
 0002:00000148       __imp_LeaveCriticalSection 0000000180015148     kernel32:KERNEL32.dll
 0002:00000150       __imp_DeleteCriticalSection 0000000180015150     kernel32:KERNEL32.dll
 0002:00000158       __imp_InitializeCriticalSectionAndSpinCount 0000000180015158     kernel32:KERNEL32.dll
 0002:00000160       __imp_TlsAlloc             0000000180015160     kernel32:KERNEL32.dll
 0002:00000168       __imp_TlsGetValue          0000000180015168     kernel32:KERNEL32.dll
 0002:00000170       __imp_TlsSetValue          0000000180015170     kernel32:KERNEL32.dll
 0002:00000178       __imp_TlsFree              0000000180015178     kernel32:KERNEL32.dll
 0002:00000180       __imp_FreeLibrary          0000000180015180     kernel32:KERNEL32.dll
 0002:00000188       __imp_GetProcAddress       0000000180015188     kernel32:KERNEL32.dll
 0002:00000190       __imp_LoadLibraryExW       0000000180015190     kernel32:KERNEL32.dll
 0002:00000198       __imp_ExitProcess          0000000180015198     kernel32:KERNEL32.dll
 0002:000001a0       __imp_GetModuleHandleExW   00000001800151a0     kernel32:KERNEL32.dll
 0002:000001a8       __imp_GetModuleFileNameA   00000001800151a8     kernel32:KERNEL32.dll
 0002:000001b0       __imp_MultiByteToWideChar  00000001800151b0     kernel32:KERNEL32.dll
 0002:000001b8       __imp_WideCharToMultiByte  00000001800151b8     kernel32:KERNEL32.dll
 0002:000001c0       __imp_HeapFree             00000001800151c0     kernel32:KERNEL32.dll
 0002:000001c8       __imp_GetStdHandle         00000001800151c8     kernel32:KERNEL32.dll
 0002:000001d0       __imp_GetFileType          00000001800151d0     kernel32:KERNEL32.dll
 0002:000001d8       __imp_HeapAlloc            00000001800151d8     kernel32:KERNEL32.dll
 0002:000001e0       __imp_GetACP               00000001800151e0     kernel32:KERNEL32.dll
 0002:000001e8       __imp_FindClose            00000001800151e8     kernel32:KERNEL32.dll
 0002:000001f0       __imp_FindFirstFileExA     00000001800151f0     kernel32:KERNEL32.dll
 0002:000001f8       __imp_FindNextFileA        00000001800151f8     kernel32:KERNEL32.dll
 0002:00000200       __imp_IsValidCodePage      0000000180015200     kernel32:KERNEL32.dll
 0002:00000208       __imp_GetOEMCP             0000000180015208     kernel32:KERNEL32.dll
 0002:00000210       __imp_GetCPInfo            0000000180015210     kernel32:KERNEL32.dll
 0002:00000218       __imp_GetCommandLineA      0000000180015218     kernel32:KERNEL32.dll
 0002:00000220       __imp_GetCommandLineW      0000000180015220     kernel32:KERNEL32.dll
 0002:00000228       __imp_GetEnvironmentStringsW 0000000180015228     kernel32:KERNEL32.dll
 0002:00000230       __imp_FreeEnvironmentStringsW 0000000180015230     kernel32:KERNEL32.dll
 0002:00000238       __imp_LCMapStringW         0000000180015238     kernel32:KERNEL32.dll
 0002:00000240       __imp_GetProcessHeap       0000000180015240     kernel32:KERNEL32.dll
 0002:00000248       __imp_ReadFile             0000000180015248     kernel32:KERNEL32.dll
 0002:00000250       __imp_GetConsoleMode       0000000180015250     kernel32:KERNEL32.dll
 0002:00000258       __imp_ReadConsoleW         0000000180015258     kernel32:KERNEL32.dll
 0002:00000260       __imp_SetStdHandle         0000000180015260     kernel32:KERNEL32.dll
 0002:00000268       __imp_GetStringTypeW       0000000180015268     kernel32:KERNEL32.dll
 0002:00000270       __imp_HeapSize             0000000180015270     kernel32:KERNEL32.dll
 0002:00000278       __imp_HeapReAlloc          0000000180015278     kernel32:KERNEL32.dll
 0002:00000280       __imp_FlushFileBuffers     0000000180015280     kernel32:KERNEL32.dll
 0002:00000288       __imp_WriteFile            0000000180015288     kernel32:KERNEL32.dll
 0002:00000290       __imp_GetConsoleCP         0000000180015290     kernel32:KERNEL32.dll
 0002:00000298       __imp_SetFilePointerEx     0000000180015298     kernel32:KERNEL32.dll
 0002:000002a0       __imp_CreateFileW          00000001800152a0     kernel32:KERNEL32.dll
 0002:000002a8       __imp_WriteConsoleW        00000001800152a8     kernel32:KERNEL32.dll
 0002:000002b0       __imp_GetSystemInfo        00000001800152b0     kernel32:KERNEL32.dll
 0002:000002b8       __imp_VirtualProtect       00000001800152b8     kernel32:KERNEL32.dll
 0002:000002c0       __imp_VirtualQuery         00000001800152c0     kernel32:KERNEL32.dll
 0002:000002c8       __imp_RtlUnwind            00000001800152c8     kernel32:KERNEL32.dll
 0002:000002d0       \177KERNEL32_NULL_THUNK_DATA 00000001800152d0     kernel32:KERNEL32.dll
 0002:000002d8       __guard_check_icall_fptr   00000001800152d8     LIBCMT:guard_support.obj
 0002:000002e0       __guard_dispatch_icall_fptr 00000001800152e0     LIBCMT:guard_support.obj
 0002:000002e8       __xc_a                     00000001800152e8     LIBCMT:initializers.obj
 0002:00000308       _register_memoryjs_        0000000180015308     memoryjs.obj
 0002:00000310       __xc_z                     0000000180015310     LIBCMT:initializers.obj
 0002:00000318       __xi_a                     0000000180015318     LIBCMT:initializers.obj
 0002:00000320       __acrt_stdio_initializer   0000000180015320     libucrt:stdio_initializer.obj
 0002:00000328       __acrt_multibyte_initializer 0000000180015328     libucrt:multibyte_initializer.obj
 0002:00000330       __acrt_tran_fma3_initializer 0000000180015330     libucrt:fma3_initializer.obj
 0002:00000338       __xi_z                     0000000180015338     LIBCMT:initializers.obj
 0002:00000340       __xp_a                     0000000180015340     LIBCMT:initializers.obj
 0002:00000348       __acrt_locale_terminator   0000000180015348     libucrt:locale_initializer.obj
 0002:00000350       __dcrt_console_output_terminator 0000000180015350     libucrt:console_output_initializer.obj
 0002:00000358       __acrt_stdio_terminator    0000000180015358     libucrt:stdio_initializer.obj
 0002:00000360       __xp_z                     0000000180015360     LIBCMT:initializers.obj
 0002:00000368       __xt_a                     0000000180015368     LIBCMT:initializers.obj
 0002:00000370       __xt_z                     0000000180015370     LIBCMT:initializers.obj
 0002:00000380       __sz_node_exe              0000000180015380     node:node.exe
 0002:00000398       ??_7exception@std@@6B@     0000000180015398     libcpmt:xthrow.obj
 0002:000003a8       ??_C@_0BC@EOODALEL@Unknown?5exception@ 00000001800153a8     libcpmt:xthrow.obj
 0002:000003c8       ??_7bad_alloc@std@@6B@     00000001800153c8     libcpmt:xthrow.obj
 0002:000003d8       ??_C@_0P@GHFPNOJB@bad?5allocation@ 00000001800153d8     libcpmt:xthrow.obj
 0002:000003f0       ??_7logic_error@std@@6B@   00000001800153f0     libcpmt:xthrow.obj
 0002:00000408       ??_7length_error@std@@6B@  0000000180015408     libcpmt:xthrow.obj
 0002:00000420       ??_7out_of_range@std@@6B@  0000000180015420     libcpmt:xthrow.obj
 0002:00000438       ??_7type_info@@6B@         0000000180015438     LIBCMT:std_type_info_static.obj
 0002:00000440       _pRawDllMain               0000000180015440     LIBCMT:dll_dllmain.obj
 0002:00000440       _pDefaultRawDllMain        0000000180015440     LIBCMT:dll_dllmain.obj
 0002:00000460       ??_7bad_array_new_length@std@@6B@ 0000000180015460     LIBCMT:throw_bad_alloc.obj
 0002:00000470       ??_C@_0BF@KINCDENJ@bad?5array?5new?5length@ 0000000180015470     LIBCMT:throw_bad_alloc.obj
 0002:00000808       ??_C@_08EHJDFFNH@__based?$CI@ 0000000180015808     libvcruntime:undname.obj
 0002:00000818       ??_C@_07KOLFKCDI@__cdecl@  0000000180015818     libvcruntime:undname.obj
 0002:00000820       ??_C@_08GHMPAG@__pascal@   0000000180015820     libvcruntime:undname.obj
 0002:00000830       ??_C@_09IFJBGAPI@__stdcall@ 0000000180015830     libvcruntime:undname.obj
 0002:00000840       ??_C@_0L@NPHFGOKO@__thiscall@ 0000000180015840     libvcruntime:undname.obj
 0002:00000850       ??_C@_0L@JMKHOMEK@__fastcall@ 0000000180015850     libvcruntime:undname.obj
 0002:00000860       ??_C@_0N@BCKKPABJ@__vectorcall@ 0000000180015860     libvcruntime:undname.obj
 0002:00000870       ??_C@_09HIJEGCPM@__clrcall@ 0000000180015870     libvcruntime:undname.obj
 0002:0000087c       ??_C@_06GHPCKEAG@__eabi@   000000018001587c     libvcruntime:undname.obj
 0002:00000888       ??_C@_09IOPIDJLG@__swift_1@ 0000000180015888     libvcruntime:undname.obj
 0002:00000898       ??_C@_09KFNFGKHF@__swift_2@ 0000000180015898     libvcruntime:undname.obj
 0002:000008a8       ??_C@_07JOMMBBKO@__ptr64@  00000001800158a8     libvcruntime:undname.obj
 0002:000008b0       ??_C@_0L@PILCLIHE@__restrict@ 00000001800158b0     libvcruntime:undname.obj
 0002:000008c0       ??_C@_0M@GFIIJFMG@__unaligned@ 00000001800158c0     libvcruntime:undname.obj
 0002:000008d0       ??_C@_09DHDLOLLB@restrict?$CI@ 00000001800158d0     libvcruntime:undname.obj
 0002:000008dc       ??_C@_04NIHEBCM@?5new@     00000001800158dc     libvcruntime:undname.obj
 0002:000008e8       ??_C@_07FPCDHGMM@?5delete@ 00000001800158e8     libvcruntime:undname.obj
 0002:000008f0       ??_C@_01NEMOKFLO@?$DN@     00000001800158f0     libvcruntime:undname.obj
 0002:000008f4       ??_C@_02GPIOPFAK@?$DO?$DO@ 00000001800158f4     libvcruntime:undname.obj
 0002:000008f8       ??_C@_02FODMEDOG@?$DM?$DM@ 00000001800158f8     libvcruntime:undname.obj
 0002:000008fc       ??_C@_01DCLJPIOD@?$CB@     00000001800158fc     libvcruntime:undname.obj
 0002:00000900       ??_C@_02EGOFBIJA@?$DN?$DN@ 0000000180015900     libvcruntime:undname.obj
 0002:00000904       ??_C@_02FDNJECIE@?$CB?$DN@ 0000000180015904     libvcruntime:undname.obj
 0002:00000908       ??_C@_02GPECMEKF@?$FL?$FN@ 0000000180015908     libvcruntime:undname.obj
 0002:00000910       ??_C@_08LHJFAFGD@operator@ 0000000180015910     libvcruntime:undname.obj
 0002:0000091c       ??_C@_02HBOOOICD@?9?$DO@   000000018001591c     libvcruntime:undname.obj
 0002:00000920       ??_C@_01NBENCBCI@?$CK@     0000000180015920     libvcruntime:undname.obj
 0002:00000924       ??_C@_02ECNGHCIF@?$CL?$CL@ 0000000180015924     libvcruntime:undname.obj
 0002:00000928       ??_C@_02BAABKJLB@?9?9@     0000000180015928     libvcruntime:undname.obj
 0002:0000092c       ??_C@_01JOAMLHOP@?9@       000000018001592c     libvcruntime:undname.obj
 0002:00000930       ??_C@_01MIFGBAGJ@?$CL@     0000000180015930     libvcruntime:undname.obj
 0002:00000934       ??_C@_01HNPIGOCE@?$CG@     0000000180015934     libvcruntime:undname.obj
 0002:00000938       ??_C@_03MNHNFDLC@?9?$DO?$CK@ 0000000180015938     libvcruntime:undname.obj
 0002:0000093c       ??_C@_01KMDKNFGN@?1@       000000018001593c     libvcruntime:undname.obj
 0002:00000940       ??_C@_01FGNFDNOH@?$CF@     0000000180015940     libvcruntime:undname.obj
 0002:00000944       ??_C@_01MNNFJEPP@?$DM@     0000000180015944     libvcruntime:undname.obj
 0002:00000948       ??_C@_02EHCHHCKH@?$DM?$DN@ 0000000180015948     libvcruntime:undname.obj
 0002:0000094c       ??_C@_01PPODPGHN@?$DO@     000000018001594c     libvcruntime:undname.obj
 0002:00000950       ??_C@_02EEKDKGMJ@?$DO?$DN@ 0000000180015950     libvcruntime:undname.obj
 0002:00000954       ??_C@_01IHBHIGKO@?0@       0000000180015954     libvcruntime:undname.obj
 0002:00000958       ??_C@_02HCKGKOFO@?$CI?$CJ@ 0000000180015958     libvcruntime:undname.obj
 0002:0000095c       ??_C@_01PJKLJHI@?$HO@      000000018001595c     libvcruntime:undname.obj
 0002:00000960       ??_C@_01JKBOJNNK@?$FO@     0000000180015960     libvcruntime:undname.obj
 0002:00000964       ??_C@_01DNKMNLPK@?$HM@     0000000180015964     libvcruntime:undname.obj
 0002:00000968       ??_C@_02PPKAJPJL@?$CG?$CG@ 0000000180015968     libvcruntime:undname.obj
 0002:0000096c       ??_C@_02NONPIBCD@?$HM?$HM@ 000000018001596c     libvcruntime:undname.obj
 0002:00000970       ??_C@_02FPIMKNGF@?$CK?$DN@ 0000000180015970     libvcruntime:undname.obj
 0002:00000974       ??_C@_02FOEOMHFC@?$CL?$DN@ 0000000180015974     libvcruntime:undname.obj
 0002:00000978       ??_C@_02FKMDLLOA@?9?$DN@   0000000180015978     libvcruntime:undname.obj
 0002:0000097c       ??_C@_02FJEHGPIO@?1?$DN@   000000018001597c     libvcruntime:undname.obj
 0002:00000980       ??_C@_02FENAOKFI@?$CF?$DN@ 0000000180015980     libvcruntime:undname.obj
 0002:00000984       ??_C@_03IKFCCPFF@?$DO?$DO?$DN@ 0000000180015984     libvcruntime:undname.obj
 0002:00000988       ??_C@_03CDNPDDLA@?$DM?$DM?$DN@ 0000000180015988     libvcruntime:undname.obj
 0002:0000098c       ??_C@_02FGJGFEAB@?$CG?$DN@ 000000018001598c     libvcruntime:undname.obj
 0002:00000990       ??_C@_02DHLNPPGH@?$HM?$DN@ 0000000180015990     libvcruntime:undname.obj
 0002:00000994       ??_C@_02MHEGNOJ@?$FO?$DN@  0000000180015994     libvcruntime:undname.obj
 0002:00000998       ??_C@_09IFPLHPGF@?$GAvftable?8@ 0000000180015998     libvcruntime:undname.obj
 0002:000009a8       ??_C@_09BLBHBJP@?$GAvbtable?8@ 00000001800159a8     libvcruntime:undname.obj
 0002:000009b8       ??_C@_07FEEIOKP@?$GAvcall?8@ 00000001800159b8     libvcruntime:undname.obj
 0002:000009c0       ??_C@_08LLFFHHDJ@?$GAtypeof?8@ 00000001800159c0     libvcruntime:undname.obj
 0002:000009d0       ??_C@_0BF@KDPPACIK@?$GAlocal?5static?5guard?8@ 00000001800159d0     libvcruntime:undname.obj
 0002:000009e8       ??_C@_08OBABFOLI@?$GAstring?8@ 00000001800159e8     libvcruntime:undname.obj
 0002:000009f8       ??_C@_0BD@JDLKDPAB@?$GAvbase?5destructor?8@ 00000001800159f8     libvcruntime:undname.obj
 0002:00000a10       ??_C@_0BN@DEGPLNFK@?$GAvector?5deleting?5destructor?8@ 0000000180015a10     libvcruntime:undname.obj
 0002:00000a30       ??_C@_0BO@OBMKPJIG@?$GAdefault?5constructor?5closure?8@ 0000000180015a30     libvcruntime:undname.obj
 0002:00000a50       ??_C@_0BN@IMDCHIKM@?$GAscalar?5deleting?5destructor?8@ 0000000180015a50     libvcruntime:undname.obj
 0002:00000a70       ??_C@_0BO@PFGOCPJJ@?$GAvector?5constructor?5iterator?8@ 0000000180015a70     libvcruntime:undname.obj
 0002:00000a90       ??_C@_0BN@LFPFMEDL@?$GAvector?5destructor?5iterator?8@ 0000000180015a90     libvcruntime:undname.obj
 0002:00000ab0       ??_C@_0CE@IKBNEHA@?$GAvector?5vbase?5constructor?5itera@ 0000000180015ab0     libvcruntime:undname.obj
 0002:00000ad8       ??_C@_0BL@NILFHHPC@?$GAvirtual?5displacement?5map?8@ 0000000180015ad8     libvcruntime:undname.obj
 0002:00000af8       ??_C@_0CB@JONCMFFK@?$GAeh?5vector?5constructor?5iterator@ 0000000180015af8     libvcruntime:undname.obj
 0002:00000b20       ??_C@_0CA@GCEOPDGL@?$GAeh?5vector?5destructor?5iterator?8@ 0000000180015b20     libvcruntime:undname.obj
 0002:00000b40       ??_C@_0CH@OOJPLCPH@?$GAeh?5vector?5vbase?5constructor?5it@ 0000000180015b40     libvcruntime:undname.obj
 0002:00000b68       ??_C@_0BL@LLKPOHJI@?$GAcopy?5constructor?5closure?8@ 0000000180015b68     libvcruntime:undname.obj
 0002:00000b88       ??_C@_0BA@KBCDOMBN@?$GAudt?5returning?8@ 0000000180015b88     libvcruntime:undname.obj
 0002:00000b98       ??_C@_03KLGMFNMG@?$GAEH@   0000000180015b98     libvcruntime:undname.obj
 0002:00000b9c       ??_C@_05KHLCHHI@?$GARTTI@  0000000180015b9c     libvcruntime:undname.obj
 0002:00000ba8       ??_C@_0BA@KKLDJDLB@?$GAlocal?5vftable?8@ 0000000180015ba8     libvcruntime:undname.obj
 0002:00000bb8       ??_C@_0CE@IIHCMGGL@?$GAlocal?5vftable?5constructor?5clos@ 0000000180015bb8     libvcruntime:undname.obj
 0002:00000bdc       ??_C@_06FHBGPFGH@?5new?$FL?$FN@ 0000000180015bdc     libvcruntime:undname.obj
 0002:00000be8       ??_C@_09LBNFPBCA@?5delete?$FL?$FN@ 0000000180015be8     libvcruntime:undname.obj
 0002:00000bf8       ??_C@_0P@HJKNJFNN@?$GAomni?5callsig?8@ 0000000180015bf8     libvcruntime:undname.obj
 0002:00000c08       ??_C@_0BL@CNOONJFP@?$GAplacement?5delete?5closure?8@ 0000000180015c08     libvcruntime:undname.obj
 0002:00000c28       ??_C@_0BN@CKNJLHMB@?$GAplacement?5delete?$FL?$FN?5closure?8@ 0000000180015c28     libvcruntime:undname.obj
 0002:00000c48       ??_C@_0CG@CFDHKGGD@?$GAmanaged?5vector?5constructor?5ite@ 0000000180015c48     libvcruntime:undname.obj
 0002:00000c70       ??_C@_0CF@IMGKMJNO@?$GAmanaged?5vector?5destructor?5iter@ 0000000180015c70     libvcruntime:undname.obj
 0002:00000c98       ??_C@_0CG@HLDDJMAG@?$GAeh?5vector?5copy?5constructor?5ite@ 0000000180015c98     libvcruntime:undname.obj
 0002:00000cc0       ??_C@_0CM@FCBBDIGB@?$GAeh?5vector?5vbase?5copy?5construct@ 0000000180015cc0     libvcruntime:undname.obj
 0002:00000cf0       ??_C@_0BL@CLIPGLGB@?$GAdynamic?5initializer?5for?5?8@ 0000000180015cf0     libvcruntime:undname.obj
 0002:00000d10       ??_C@_0CB@PDBIFEP@?$GAdynamic?5atexit?5destructor?5for?5@ 0000000180015d10     libvcruntime:undname.obj
 0002:00000d38       ??_C@_0CD@CGAJBKEJ@?$GAvector?5copy?5constructor?5iterat@ 0000000180015d38     libvcruntime:undname.obj
 0002:00000d60       ??_C@_0CJ@GJELGAMM@?$GAvector?5vbase?5copy?5constructor?5@ 0000000180015d60     libvcruntime:undname.obj
 0002:00000d90       ??_C@_0CL@FGIJHLCE@?$GAmanaged?5vector?5copy?5constructo@ 0000000180015d90     libvcruntime:undname.obj
 0002:00000dc0       ??_C@_0BM@PMGGMLDN@?$GAlocal?5static?5thread?5guard?8@ 0000000180015dc0     libvcruntime:undname.obj
 0002:00000de0       ??_C@_0N@BDNMDMOL@operator?5?$CC?$CC?5@ 0000000180015de0     libvcruntime:undname.obj
 0002:00000df0       ??_C@_0BC@GGEBGALA@operator?5co_await@ 0000000180015df0     libvcruntime:undname.obj
 0002:00000e08       ??_C@_0BC@DAFEJGAK@?5Type?5Descriptor?8@ 0000000180015e08     libvcruntime:undname.obj
 0002:00000e20       ??_C@_0BM@LDKODKLH@?5Base?5Class?5Descriptor?5at?5?$CI@ 0000000180015e20     libvcruntime:undname.obj
 0002:00000e40       ??_C@_0BD@LGICGFMM@?5Base?5Class?5Array?8@ 0000000180015e40     libvcruntime:undname.obj
 0002:00000e58       ??_C@_0BN@MECKDCOJ@?5Class?5Hierarchy?5Descriptor?8@ 0000000180015e58     libvcruntime:undname.obj
 0002:00000e78       ??_C@_0BK@CFCOFLF@?5Complete?5Object?5Locator?8@ 0000000180015e78     libvcruntime:undname.obj
 0002:00000eb0       ??_C@_1DM@KHCHBNEB@?$AAa?$AAp?$AAi?$AA?9?$AAm?$AAs?$AA?9?$AAw?$AAi?$AAn?$AA?9?$AAc?$AAo?$AAr?$AAe@ 0000000180015eb0     libvcruntime:winapi_downlevel.obj
 0002:00000ef0       ??_C@_1DK@LPPGFMPP@?$AAa?$AAp?$AAi?$AA?9?$AAm?$AAs?$AA?9?$AAw?$AAi?$AAn?$AA?9?$AAc?$AAo?$AAr?$AAe@ 0000000180015ef0     libvcruntime:winapi_downlevel.obj
 0002:00000f30       ??_C@_1BC@GDMECMAK@?$AAk?$AAe?$AAr?$AAn?$AAe?$AAl?$AA3?$AA2@ 0000000180015f30     libvcruntime:winapi_downlevel.obj
 0002:00000f48       ??_C@_1BA@PFFKHIOG@?$AAa?$AAp?$AAi?$AA?9?$AAm?$AAs?$AA?9@ 0000000180015f48     libvcruntime:winapi_downlevel.obj
 0002:00000f58       ??_C@_1BA@IAIFMGEF@?$AAe?$AAx?$AAt?$AA?9?$AAm?$AAs?$AA?9@ 0000000180015f58     libvcruntime:winapi_downlevel.obj
 0002:00000f70       ??_C@_08KNHFBNJ@FlsAlloc@  0000000180015f70     libvcruntime:winapi_downlevel.obj
 0002:00000f88       ??_C@_07PEJMOBNF@FlsFree@  0000000180015f88     libvcruntime:winapi_downlevel.obj
 0002:00000f98       ??_C@_0M@GDNOONDI@FlsGetValue@ 0000000180015f98     libvcruntime:winapi_downlevel.obj
 0002:00000fb0       ??_C@_0M@JCPCPOEF@FlsSetValue@ 0000000180015fb0     libvcruntime:winapi_downlevel.obj
 0002:00000fc8       ??_C@_0BM@HCFOFFN@InitializeCriticalSectionEx@ 0000000180015fc8     libvcruntime:winapi_downlevel.obj
 0002:00000fe8       _pDestructExceptionObject  0000000180015fe8     libvcruntime:ehhelpers.obj
 0002:00000ff0       __acrt_exception_action_table 0000000180015ff0     libucrt:exception_filter.obj
 0002:000010b0       __acrt_signal_action_table_count 00000001800160b0     libucrt:exception_filter.obj
 0002:000010b8       __acrt_signal_action_first_fpe_index 00000001800160b8     libucrt:exception_filter.obj
 0002:000010c0       __acrt_signal_action_fpe_count 00000001800160c0     libucrt:exception_filter.obj
 0002:000010c8       ??_C@_1BI@BGOHAHKC@?$AAm?$AAs?$AAc?$AAo?$AAr?$AAe?$AAe?$AA?4?$AAd?$AAl?$AAl?$AA?$AA@ 00000001800160c8     libucrt:exit.obj
 0002:000010e0       ??_C@_0P@MIGLKIOC@CorExitProcess?$AA@ 00000001800160e0     libucrt:exit.obj
 0002:00001350       __lc_time_c                0000000180016350     libucrt:nlsdata.obj
 0002:00001610       ??_C@_03KOEHGMDN@Sun?$AA@  0000000180016610     libucrt:nlsdata.obj
 0002:00001614       ??_C@_03PDAGKDH@Mon?$AA@   0000000180016614     libucrt:nlsdata.obj
 0002:00001618       ??_C@_03NAGEINEP@Tue?$AA@  0000000180016618     libucrt:nlsdata.obj
 0002:0000161c       ??_C@_03MHOMLAJA@Wed?$AA@  000000018001661c     libucrt:nlsdata.obj
 0002:00001620       ??_C@_03IOFIKPDN@Thu?$AA@  0000000180016620     libucrt:nlsdata.obj
 0002:00001624       ??_C@_03IDIOELNC@Fri?$AA@  0000000180016624     libucrt:nlsdata.obj
 0002:00001628       ??_C@_03FEFJNEK@Sat?$AA@   0000000180016628     libucrt:nlsdata.obj
 0002:0000162c       ??_C@_06OOPIFAJ@Sunday?$AA@ 000000018001662c     libucrt:nlsdata.obj
 0002:00001634       ??_C@_06JLEDEDGH@Monday?$AA@ 0000000180016634     libucrt:nlsdata.obj
 0002:00001640       ??_C@_07BAAGCFCM@Tuesday?$AA@ 0000000180016640     libucrt:nlsdata.obj
 0002:00001648       ??_C@_09DLIGFAKA@Wednesday?$AA@ 0000000180016648     libucrt:nlsdata.obj
 0002:00001658       ??_C@_08HACCIKIA@Thursday?$AA@ 0000000180016658     libucrt:nlsdata.obj
 0002:00001664       ??_C@_06JECMNKMI@Friday?$AA@ 0000000180016664     libucrt:nlsdata.obj
 0002:00001670       ??_C@_08INBOOONO@Saturday?$AA@ 0000000180016670     libucrt:nlsdata.obj
 0002:0000167c       ??_C@_03JIHJHPIE@Jan?$AA@  000000018001667c     libucrt:nlsdata.obj
 0002:00001680       ??_C@_03HJBDCHOM@Feb?$AA@  0000000180016680     libucrt:nlsdata.obj
 0002:00001684       ??_C@_03ODNJBKGA@Mar?$AA@  0000000180016684     libucrt:nlsdata.obj
 0002:00001688       ??_C@_03LEOLGMJP@Apr?$AA@  0000000180016688     libucrt:nlsdata.obj
 0002:0000168c       ??_C@_03CNMDKL@May?$AA@    000000018001668c     libucrt:nlsdata.obj
 0002:00001690       ??_C@_03IDFGHECI@Jun?$AA@  0000000180016690     libucrt:nlsdata.obj
 0002:00001694       ??_C@_03LBGABGKK@Jul?$AA@  0000000180016694     libucrt:nlsdata.obj
 0002:00001698       ??_C@_03IFJFEIGA@Aug?$AA@  0000000180016698     libucrt:nlsdata.obj
 0002:0000169c       ??_C@_03GGCAPAJC@Sep?$AA@  000000018001669c     libucrt:nlsdata.obj
 0002:000016a0       ??_C@_03BMAOKBAD@Oct?$AA@  00000001800166a0     libucrt:nlsdata.obj
 0002:000016a4       ??_C@_03JPJOFNIA@Nov?$AA@  00000001800166a4     libucrt:nlsdata.obj
 0002:000016a8       ??_C@_03MKABNOCG@Dec?$AA@  00000001800166a8     libucrt:nlsdata.obj
 0002:000016b0       ??_C@_07CGJPFGJA@January?$AA@ 00000001800166b0     libucrt:nlsdata.obj
 0002:000016b8       ??_C@_08GNJGEPFN@February?$AA@ 00000001800166b8     libucrt:nlsdata.obj
 0002:000016c4       ??_C@_05HPCKOFNC@March?$AA@ 00000001800166c4     libucrt:nlsdata.obj
 0002:000016cc       ??_C@_05DMJDNLEJ@April?$AA@ 00000001800166cc     libucrt:nlsdata.obj
 0002:000016d4       ??_C@_04CNLMGBGM@June?$AA@ 00000001800166d4     libucrt:nlsdata.obj
 0002:000016dc       ??_C@_04MIEPOIFP@July?$AA@ 00000001800166dc     libucrt:nlsdata.obj
 0002:000016e4       ??_C@_06LBBHFDDG@August?$AA@ 00000001800166e4     libucrt:nlsdata.obj
 0002:000016f0       ??_C@_09BHHEALKD@September?$AA@ 00000001800166f0     libucrt:nlsdata.obj
 0002:00001700       ??_C@_07JJNFCEND@October?$AA@ 0000000180016700     libucrt:nlsdata.obj
 0002:00001708       ??_C@_08HCHEGEOA@November?$AA@ 0000000180016708     libucrt:nlsdata.obj
 0002:00001718       ??_C@_08EDHMEBNP@December?$AA@ 0000000180016718     libucrt:nlsdata.obj
 0002:00001724       ??_C@_02DEDBPAFC@AM?$AA@   0000000180016724     libucrt:nlsdata.obj
 0002:00001728       ??_C@_02CJNFDJBF@PM?$AA@   0000000180016728     libucrt:nlsdata.obj
 0002:00001730       ??_C@_08BPBNCDIB@MM?1dd?1yy?$AA@ 0000000180016730     libucrt:nlsdata.obj
 0002:00001740       ??_C@_0BE@CKGJFCPC@dddd?0?5MMMM?5dd?0?5yyyy?$AA@ 0000000180016740     libucrt:nlsdata.obj
 0002:00001758       ??_C@_08JCCMCCIL@HH?3mm?3ss?$AA@ 0000000180016758     libucrt:nlsdata.obj
 0002:00001768       ??_C@_17MBGCMIPB@?$AAS?$AAu?$AAn?$AA?$AA@ 0000000180016768     libucrt:nlsdata.obj
 0002:00001770       ??_C@_17KBOMKBF@?$AAM?$AAo?$AAn?$AA?$AA@ 0000000180016770     libucrt:nlsdata.obj
 0002:00001778       ??_C@_17BMKGEGOJ@?$AAT?$AAu?$AAe?$AA?$AA@ 0000000180016778     libucrt:nlsdata.obj
 0002:00001780       ??_C@_17CJEDCEPE@?$AAW?$AAe?$AAd?$AA?$AA@ 0000000180016780     libucrt:nlsdata.obj
 0002:00001788       ??_C@_17PDPHAADD@?$AAT?$AAh?$AAu?$AA?$AA@ 0000000180016788     libucrt:nlsdata.obj
 0002:00001790       ??_C@_17HFOLPPLP@?$AAF?$AAr?$AAi?$AA?$AA@ 0000000180016790     libucrt:nlsdata.obj
 0002:00001798       ??_C@_17GGIBDPIH@?$AAS?$AAa?$AAt?$AA?$AA@ 0000000180016798     libucrt:nlsdata.obj
 0002:000017a0       ??_C@_1O@IHNHDHPB@?$AAS?$AAu?$AAn?$AAd?$AAa?$AAy?$AA?$AA@ 00000001800167a0     libucrt:nlsdata.obj
 0002:000017b0       ??_C@_1O@MMNBFLIA@?$AAM?$AAo?$AAn?$AAd?$AAa?$AAy?$AA?$AA@ 00000001800167b0     libucrt:nlsdata.obj
 0002:000017c0       ??_C@_1BA@ENFBFFEK@?$AAT?$AAu?$AAe?$AAs?$AAd?$AAa?$AAy?$AA?$AA@ 00000001800167c0     libucrt:nlsdata.obj
 0002:000017d0       ??_C@_1BE@EBOGMDOH@?$AAW?$AAe?$AAd?$AAn?$AAe?$AAs?$AAd?$AAa?$AAy?$AA?$AA@ 00000001800167d0     libucrt:nlsdata.obj
 0002:000017e8       ??_C@_1BC@HHMNLIHE@?$AAT?$AAh?$AAu?$AAr?$AAs?$AAd?$AAa?$AAy?$AA?$AA@ 00000001800167e8     libucrt:nlsdata.obj
 0002:00001800       ??_C@_1O@PDICJHAG@?$AAF?$AAr?$AAi?$AAd?$AAa?$AAy?$AA?$AA@ 0000000180016800     libucrt:nlsdata.obj
 0002:00001810       ??_C@_1BC@ENMNNPAJ@?$AAS?$AAa?$AAt?$AAu?$AAr?$AAd?$AAa?$AAy?$AA?$AA@ 0000000180016810     libucrt:nlsdata.obj
 0002:00001828       ??_C@_17DKNBKCHM@?$AAJ?$AAa?$AAn?$AA?$AA@ 0000000180016828     libucrt:nlsdata.obj
 0002:00001830       ??_C@_17LMDJEKJN@?$AAF?$AAe?$AAb?$AA?$AA@ 0000000180016830     libucrt:nlsdata.obj
 0002:00001838       ??_C@_17CKNLEDEC@?$AAM?$AAa?$AAr?$AA?$AA@ 0000000180016838     libucrt:nlsdata.obj
 0002:00001840       ??_C@_17LFPOIHDD@?$AAA?$AAp?$AAr?$AA?$AA@ 0000000180016840     libucrt:nlsdata.obj
 0002:00001848       ??_C@_17PNNKMEED@?$AAM?$AAa?$AAy?$AA?$AA@ 0000000180016848     libucrt:nlsdata.obj
 0002:00001850       ??_C@_17KCJGOCPB@?$AAJ?$AAu?$AAn?$AA?$AA@ 0000000180016850     libucrt:nlsdata.obj
 0002:00001858       ??_C@_17IJPCKHK@?$AAJ?$AAu?$AAl?$AA?$AA@ 0000000180016858     libucrt:nlsdata.obj
 0002:00001860       ??_C@_17ICPELBCN@?$AAA?$AAu?$AAg?$AA?$AA@ 0000000180016860     libucrt:nlsdata.obj
 0002:00001868       ??_C@_17HCHCOKMG@?$AAS?$AAe?$AAp?$AA?$AA@ 0000000180016868     libucrt:nlsdata.obj
 0002:00001870       ??_C@_17FNLKOI@?$AAO?$AAc?$AAt?$AA?$AA@ 0000000180016870     libucrt:nlsdata.obj
 0002:00001878       ??_C@_17BBDMLCIG@?$AAN?$AAo?$AAv?$AA?$AA@ 0000000180016878     libucrt:nlsdata.obj
 0002:00001880       ??_C@_17EGKACKIF@?$AAD?$AAe?$AAc?$AA?$AA@ 0000000180016880     libucrt:nlsdata.obj
 0002:00001888       ??_C@_1BA@EFMEIEBA@?$AAJ?$AAa?$AAn?$AAu?$AAa?$AAr?$AAy?$AA?$AA@ 0000000180016888     libucrt:nlsdata.obj
 0002:00001898       ??_C@_1BC@JGDDFFAM@?$AAF?$AAe?$AAb?$AAr?$AAu?$AAa?$AAr?$AAy?$AA?$AA@ 0000000180016898     libucrt:nlsdata.obj
 0002:000018b0       ??_C@_1M@IKEENEDF@?$AAM?$AAa?$AAr?$AAc?$AAh?$AA?$AA@ 00000001800168b0     libucrt:nlsdata.obj
 0002:000018c0       ??_C@_1M@GJNLMHFD@?$AAA?$AAp?$AAr?$AAi?$AAl?$AA?$AA@ 00000001800168c0     libucrt:nlsdata.obj
 0002:000018d0       ??_C@_19EPFLPGAP@?$AAJ?$AAu?$AAn?$AAe?$AA?$AA@ 00000001800168d0     libucrt:nlsdata.obj
 0002:000018e0       ??_C@_19BIFMLPCD@?$AAJ?$AAu?$AAl?$AAy?$AA?$AA@ 00000001800168e0     libucrt:nlsdata.obj
 0002:000018f0       ??_C@_1O@PAHLKOAC@?$AAA?$AAu?$AAg?$AAu?$AAs?$AAt?$AA?$AA@ 00000001800168f0     libucrt:nlsdata.obj
 0002:00001900       ??_C@_1BE@DKAAMBJL@?$AAS?$AAe?$AAp?$AAt?$AAe?$AAm?$AAb?$AAe?$AAr?$AA?$AA@ 0000000180016900     libucrt:nlsdata.obj
 0002:00001918       ??_C@_1BA@EPANDLNG@?$AAO?$AAc?$AAt?$AAo?$AAb?$AAe?$AAr?$AA?$AA@ 0000000180016918     libucrt:nlsdata.obj
 0002:00001928       ??_C@_1BC@BGLIFPF@?$AAN?$AAo?$AAv?$AAe?$AAm?$AAb?$AAe?$AAr?$AA?$AA@ 0000000180016928     libucrt:nlsdata.obj
 0002:00001940       ??_C@_1BC@FEMKIFH@?$AAD?$AAe?$AAc?$AAe?$AAm?$AAb?$AAe?$AAr?$AA?$AA@ 0000000180016940     libucrt:nlsdata.obj
 0002:00001954       ??_C@_15ODEHAHHF@?$AAA?$AAM?$AA?$AA@ 0000000180016954     libucrt:nlsdata.obj
 0002:0000195c       ??_C@_15CLMNNGEL@?$AAP?$AAM?$AA?$AA@ 000000018001695c     libucrt:nlsdata.obj
 0002:00001968       ??_C@_1BC@IEBCMHCM@?$AAM?$AAM?$AA?1?$AAd?$AAd?$AA?1?$AAy?$AAy?$AA?$AA@ 0000000180016968     libucrt:nlsdata.obj
 0002:00001980       ??_C@_1CI@KNAKOEBC@?$AAd?$AAd?$AAd?$AAd?$AA?0?$AA?5?$AAM?$AAM?$AAM?$AAM?$AA?5?$AAd?$AAd?$AA?0?$AA?5?$AAy?$AAy?$AAy?$AAy?$AA?$AA@ 0000000180016980     libucrt:nlsdata.obj
 0002:000019a8       ??_C@_1BC@GDGBMEMK@?$AAH?$AAH?$AA?3?$AAm?$AAm?$AA?3?$AAs?$AAs?$AA?$AA@ 00000001800169a8     libucrt:nlsdata.obj
 0002:000019c0       ??_C@_1M@BMHNFIME@?$AAe?$AAn?$AA?9?$AAU?$AAS?$AA?$AA@ 00000001800169c0     libucrt:nlsdata.obj
 0002:000019f0       ??_C@_1M@HPNHIDJI@?$AAj?$AAa?$AA?9?$AAJ?$AAP?$AA?$AA@ 00000001800169f0     libucrt:mbctype.obj
 0002:00001a00       ??_C@_1M@BIBDDEMK@?$AAz?$AAh?$AA?9?$AAC?$AAN?$AA?$AA@ 0000000180016a00     libucrt:mbctype.obj
 0002:00001a10       ??_C@_1M@JLOOOEGK@?$AAk?$AAo?$AA?9?$AAK?$AAR?$AA?$AA@ 0000000180016a10     libucrt:mbctype.obj
 0002:00001a20       ??_C@_1M@CLNBBOPM@?$AAz?$AAh?$AA?9?$AAT?$AAW?$AA?$AA@ 0000000180016a20     libucrt:mbctype.obj
 0002:00001ad0       ??_C@_1EA@JGEFHKEI@?$AAa?$AAp?$AAi?$AA?9?$AAm?$AAs?$AA?9?$AAw?$AAi?$AAn?$AA?9?$AAc?$AAo?$AAr?$AAe?$AA?9?$AAd?$AAa?$AAt?$AAe?$AAt?$AAi?$AAm?$AAe?$AA?9?$AAl?$AA1?$AA?9?$AA1?$AA?9?$AA1?$AA?$AA@ 0000000180016ad0     libucrt:winapi_thunks.obj
 0002:00001b10       ??_C@_1DM@KHCHBNEB@?$AAa?$AAp?$AAi?$AA?9?$AAm?$AAs?$AA?9?$AAw?$AAi?$AAn?$AA?9?$AAc?$AAo?$AAr?$AAe?$AA?9?$AAf?$AAi?$AAb?$AAe?$AAr?$AAs?$AA?9?$AAl?$AA1?$AA?9?$AA1?$AA?9?$AA1?$AA?$AA@ 0000000180016b10     libucrt:winapi_thunks.obj
 0002:00001b50       ??_C@_1DI@IJCEHOCB@?$AAa?$AAp?$AAi?$AA?9?$AAm?$AAs?$AA?9?$AAw?$AAi?$AAn?$AA?9?$AAc?$AAo?$AAr?$AAe?$AA?9?$AAf?$AAi?$AAl?$AAe?$AA?9?$AAl?$AA1?$AA?9?$AA2?$AA?9?$AA2?$AA?$AA@ 0000000180016b50     libucrt:winapi_thunks.obj
 0002:00001b90       ??_C@_1EI@MPIAOHOC@?$AAa?$AAp?$AAi?$AA?9?$AAm?$AAs?$AA?9?$AAw?$AAi?$AAn?$AA?9?$AAc?$AAo?$AAr?$AAe?$AA?9?$AAl?$AAo?$AAc?$AAa?$AAl?$AAi?$AAz?$AAa?$AAt?$AAi?$AAo?$AAn?$AA?9?$AAl?$AA1?$AA?9@ 0000000180016b90     libucrt:winapi_thunks.obj
 0002:00001be0       ??_C@_1FK@FPHCKFIE@?$AAa?$AAp?$AAi?$AA?9?$AAm?$AAs?$AA?9?$AAw?$AAi?$AAn?$AA?9?$AAc?$AAo?$AAr?$AAe?$AA?9?$AAl?$AAo?$AAc?$AAa?$AAl?$AAi?$AAz?$AAa?$AAt?$AAi?$AAo?$AAn?$AA?9?$AAo?$AAb?$AAs@ 0000000180016be0     libucrt:winapi_thunks.obj
 0002:00001c40       ??_C@_1EM@DILCGIIO@?$AAa?$AAp?$AAi?$AA?9?$AAm?$AAs?$AA?9?$AAw?$AAi?$AAn?$AA?9?$AAc?$AAo?$AAr?$AAe?$AA?9?$AAp?$AAr?$AAo?$AAc?$AAe?$AAs?$AAs?$AAt?$AAh?$AAr?$AAe?$AAa?$AAd?$AAs?$AA?9?$AAl@ 0000000180016c40     libucrt:winapi_thunks.obj
 0002:00001c90       ??_C@_1DM@LNCGDDPN@?$AAa?$AAp?$AAi?$AA?9?$AAm?$AAs?$AA?9?$AAw?$AAi?$AAn?$AA?9?$AAc?$AAo?$AAr?$AAe?$AA?9?$AAs?$AAt?$AAr?$AAi?$AAn?$AAg?$AA?9?$AAl?$AA1?$AA?9?$AA1?$AA?9?$AA0?$AA?$AA@ 0000000180016c90     libucrt:winapi_thunks.obj
 0002:00001cd0       ??_C@_1DK@LPPGFMPP@?$AAa?$AAp?$AAi?$AA?9?$AAm?$AAs?$AA?9?$AAw?$AAi?$AAn?$AA?9?$AAc?$AAo?$AAr?$AAe?$AA?9?$AAs?$AAy?$AAn?$AAc?$AAh?$AA?9?$AAl?$AA1?$AA?9?$AA2?$AA?9?$AA0?$AA?$AA@ 0000000180016cd0     libucrt:winapi_thunks.obj
 0002:00001d10       ??_C@_1DO@FPAPJEMD@?$AAa?$AAp?$AAi?$AA?9?$AAm?$AAs?$AA?9?$AAw?$AAi?$AAn?$AA?9?$AAc?$AAo?$AAr?$AAe?$AA?9?$AAs?$AAy?$AAs?$AAi?$AAn?$AAf?$AAo?$AA?9?$AAl?$AA1?$AA?9?$AA2?$AA?9?$AA1?$AA?$AA@ 0000000180016d10     libucrt:winapi_thunks.obj
 0002:00001d50       ??_C@_1DK@NDHNAHIO@?$AAa?$AAp?$AAi?$AA?9?$AAm?$AAs?$AA?9?$AAw?$AAi?$AAn?$AA?9?$AAc?$AAo?$AAr?$AAe?$AA?9?$AAw?$AAi?$AAn?$AAr?$AAt?$AA?9?$AAl?$AA1?$AA?9?$AA1?$AA?9?$AA0?$AA?$AA@ 0000000180016d50     libucrt:winapi_thunks.obj
 0002:00001d90       ??_C@_1DM@KGHDGBCM@?$AAa?$AAp?$AAi?$AA?9?$AAm?$AAs?$AA?9?$AAw?$AAi?$AAn?$AA?9?$AAc?$AAo?$AAr?$AAe?$AA?9?$AAx?$AAs?$AAt?$AAa?$AAt?$AAe?$AA?9?$AAl?$AA2?$AA?9?$AA1?$AA?9?$AA0?$AA?$AA@ 0000000180016d90     libucrt:winapi_thunks.obj
 0002:00001dd0       ??_C@_1EO@IJIOEFOH@?$AAa?$AAp?$AAi?$AA?9?$AAm?$AAs?$AA?9?$AAw?$AAi?$AAn?$AA?9?$AAr?$AAt?$AAc?$AAo?$AAr?$AAe?$AA?9?$AAn?$AAt?$AAu?$AAs?$AAe?$AAr?$AA?9?$AAw?$AAi?$AAn?$AAd?$AAo?$AAw?$AA?9@ 0000000180016dd0     libucrt:winapi_thunks.obj
 0002:00001e20       ??_C@_1FG@HHGEKANL@?$AAa?$AAp?$AAi?$AA?9?$AAm?$AAs?$AA?9?$AAw?$AAi?$AAn?$AA?9?$AAs?$AAe?$AAc?$AAu?$AAr?$AAi?$AAt?$AAy?$AA?9?$AAs?$AAy?$AAs?$AAt?$AAe?$AAm?$AAf?$AAu?$AAn?$AAc?$AAt?$AAi@ 0000000180016e20     libucrt:winapi_thunks.obj
 0002:00001e80       ??_C@_1EG@DBIOJECG@?$AAe?$AAx?$AAt?$AA?9?$AAm?$AAs?$AA?9?$AAw?$AAi?$AAn?$AA?9?$AAn?$AAt?$AAu?$AAs?$AAe?$AAr?$AA?9?$AAd?$AAi?$AAa?$AAl?$AAo?$AAg?$AAb?$AAo?$AAx?$AA?9?$AAl?$AA1?$AA?9?$AA1@ 0000000180016e80     libucrt:winapi_thunks.obj
 0002:00001ed0       ??_C@_1EO@FIHMJCLF@?$AAe?$AAx?$AAt?$AA?9?$AAm?$AAs?$AA?9?$AAw?$AAi?$AAn?$AA?9?$AAn?$AAt?$AAu?$AAs?$AAe?$AAr?$AA?9?$AAw?$AAi?$AAn?$AAd?$AAo?$AAw?$AAs?$AAt?$AAa?$AAt?$AAi?$AAo?$AAn?$AA?9@ 0000000180016ed0     libucrt:winapi_thunks.obj
 0002:00001f20       ??_C@_1BC@DNHGCMLG@?$AAa?$AAd?$AAv?$AAa?$AAp?$AAi?$AA3?$AA2?$AA?$AA@ 0000000180016f20     libucrt:winapi_thunks.obj
 0002:00001f38       ??_C@_1BC@GDMECMAK@?$AAk?$AAe?$AAr?$AAn?$AAe?$AAl?$AA3?$AA2?$AA?$AA@ 0000000180016f38     libucrt:winapi_thunks.obj
 0002:00001f50       ??_C@_1M@OAIMIKLP@?$AAn?$AAt?$AAd?$AAl?$AAl?$AA?$AA@ 0000000180016f50     libucrt:winapi_thunks.obj
 0002:00001f60       ??_C@_1EG@DPGNFKGC@?$AAa?$AAp?$AAi?$AA?9?$AAm?$AAs?$AA?9?$AAw?$AAi?$AAn?$AA?9?$AAa?$AAp?$AAp?$AAm?$AAo?$AAd?$AAe?$AAl?$AA?9?$AAr?$AAu?$AAn?$AAt?$AAi?$AAm?$AAe?$AA?9?$AAl?$AA1?$AA?9?$AA1@ 0000000180016f60     libucrt:winapi_thunks.obj
 0002:00001fa8       ??_C@_1O@BCCLBEOE@?$AAu?$AAs?$AAe?$AAr?$AA3?$AA2?$AA?$AA@ 0000000180016fa8     libucrt:winapi_thunks.obj
 0002:00001fb8       ??_C@_1BA@PFFKHIOG@?$AAa?$AAp?$AAi?$AA?9?$AAm?$AAs?$AA?9?$AA?$AA@ 0000000180016fb8     libucrt:winapi_thunks.obj
 0002:00001fc8       ??_C@_1BA@IAIFMGEF@?$AAe?$AAx?$AAt?$AA?9?$AAm?$AAs?$AA?9?$AA?$AA@ 0000000180016fc8     libucrt:winapi_thunks.obj
 0002:00001fe0       ??_C@_08KNHFBNJ@FlsAlloc?$AA@ 0000000180016fe0     libucrt:winapi_thunks.obj
 0002:00001ff8       ??_C@_07PEJMOBNF@FlsFree?$AA@ 0000000180016ff8     libucrt:winapi_thunks.obj
 0002:00002008       ??_C@_0M@GDNOONDI@FlsGetValue?$AA@ 0000000180017008     libucrt:winapi_thunks.obj
 0002:00002020       ??_C@_0M@JCPCPOEF@FlsSetValue?$AA@ 0000000180017020     libucrt:winapi_thunks.obj
 0002:00002038       ??_C@_0BM@HCFOFFN@InitializeCriticalSectionEx?$AA@ 0000000180017038     libucrt:winapi_thunks.obj
 0002:00002060       ??_C@_0O@KKBNKAPF@LCMapStringEx?$AA@ 0000000180017060     libucrt:winapi_thunks.obj
 0002:00002078       ??_C@_0BB@HBDEELFH@LocaleNameToLCID?$AA@ 0000000180017078     libucrt:winapi_thunks.obj
 0002:00002090       ??_C@_0CF@OJOFEIGO@AppPolicyGetProcessTerminationMe@ 0000000180017090     libucrt:winapi_thunks.obj
 0002:000020c0       __newctype                 00000001800170c0     libucrt:ctype.obj
 0002:000023c0       __newclmap                 00000001800173c0     libucrt:ctype.obj
 0002:00002540       __newcumap                 0000000180017540     libucrt:ctype.obj
 0002:000026c0       ??_C@_15PJPFLCCM@?$AAu?$AAk?$AA?$AA@ 00000001800176c0     libucrt:get_qualified_locale.obj
 0002:000026c8       ??_C@_1M@BJNKEDC@?$AAc?$AAa?$AA?9?$AAE?$AAS?$AA?$AA@ 00000001800176c8     libucrt:lcidtoname_downlevel.obj
 0002:000026d8       ??_C@_1M@IJJHFJHA@?$AAc?$AAs?$AA?9?$AAC?$AAZ?$AA?$AA@ 00000001800176d8     libucrt:lcidtoname_downlevel.obj
 0002:000026e8       ??_C@_1M@CLPEOBGI@?$AAd?$AAa?$AA?9?$AAD?$AAK?$AA?$AA@ 00000001800176e8     libucrt:lcidtoname_downlevel.obj
 0002:000026f8       ??_C@_1M@MCMADGCB@?$AAd?$AAe?$AA?9?$AAD?$AAE?$AA?$AA@ 00000001800176f8     libucrt:lcidtoname_downlevel.obj
 0002:00002708       ??_C@_1M@OOCKEMAM@?$AAe?$AAl?$AA?9?$AAG?$AAR?$AA?$AA@ 0000000180017708     libucrt:lcidtoname_downlevel.obj
 0002:00002718       ??_C@_1M@DDNJFGID@?$AAf?$AAi?$AA?9?$AAF?$AAI?$AA?$AA@ 0000000180017718     libucrt:lcidtoname_downlevel.obj
 0002:00002728       ??_C@_1M@GLIPPMAC@?$AAf?$AAr?$AA?9?$AAF?$AAR?$AA?$AA@ 0000000180017728     libucrt:lcidtoname_downlevel.obj
 0002:00002738       ??_C@_1M@GFMCHPE@?$AAh?$AAe?$AA?9?$AAI?$AAL?$AA?$AA@ 0000000180017738     libucrt:lcidtoname_downlevel.obj
 0002:00002748       ??_C@_1M@MHLPGNKM@?$AAh?$AAu?$AA?9?$AAH?$AAU?$AA?$AA@ 0000000180017748     libucrt:lcidtoname_downlevel.obj
 0002:00002758       ??_C@_1M@LPDDNNPN@?$AAi?$AAs?$AA?9?$AAI?$AAS?$AA?$AA@ 0000000180017758     libucrt:lcidtoname_downlevel.obj
 0002:00002768       ??_C@_1M@MADIPODN@?$AAi?$AAt?$AA?9?$AAI?$AAT?$AA?$AA@ 0000000180017768     libucrt:lcidtoname_downlevel.obj
 0002:00002778       ??_C@_1M@IHBJJGG@?$AAn?$AAl?$AA?9?$AAN?$AAL?$AA?$AA@ 0000000180017778     libucrt:lcidtoname_downlevel.obj
 0002:00002788       ??_C@_1M@EANAGDL@?$AAn?$AAb?$AA?9?$AAN?$AAO?$AA?$AA@ 0000000180017788     libucrt:lcidtoname_downlevel.obj
 0002:00002798       ??_C@_1M@NEIEMEGP@?$AAp?$AAl?$AA?9?$AAP?$AAL?$AA?$AA@ 0000000180017798     libucrt:lcidtoname_downlevel.obj
 0002:000027a8       ??_C@_1M@BOCFIGEP@?$AAp?$AAt?$AA?9?$AAB?$AAR?$AA?$AA@ 00000001800177a8     libucrt:lcidtoname_downlevel.obj
 0002:000027b8       ??_C@_1M@IMPFOPBG@?$AAr?$AAo?$AA?9?$AAR?$AAO?$AA?$AA@ 00000001800177b8     libucrt:lcidtoname_downlevel.obj
 0002:000027c8       ??_C@_1M@IDNNEJMM@?$AAr?$AAu?$AA?9?$AAR?$AAU?$AA?$AA@ 00000001800177c8     libucrt:lcidtoname_downlevel.obj
 0002:000027d8       ??_C@_1M@LILEEOGM@?$AAh?$AAr?$AA?9?$AAH?$AAR?$AA?$AA@ 00000001800177d8     libucrt:lcidtoname_downlevel.obj
 0002:000027e8       ??_C@_1M@FKIFEHPB@?$AAs?$AAk?$AA?9?$AAS?$AAK?$AA?$AA@ 00000001800177e8     libucrt:lcidtoname_downlevel.obj
 0002:000027f8       ??_C@_1M@LJMAMNPJ@?$AAs?$AAq?$AA?9?$AAA?$AAL?$AA?$AA@ 00000001800177f8     libucrt:lcidtoname_downlevel.obj
 0002:00002808       ??_C@_1M@GIAKDKJK@?$AAs?$AAv?$AA?9?$AAS?$AAE?$AA?$AA@ 0000000180017808     libucrt:lcidtoname_downlevel.obj
 0002:00002818       ??_C@_1M@MKJKIKCL@?$AAt?$AAh?$AA?9?$AAT?$AAH?$AA?$AA@ 0000000180017818     libucrt:lcidtoname_downlevel.obj
 0002:00002828       ??_C@_1M@MFLCCMPB@?$AAt?$AAr?$AA?9?$AAT?$AAR?$AA?$AA@ 0000000180017828     libucrt:lcidtoname_downlevel.obj
 0002:00002838       ??_C@_1M@OIJHDKJN@?$AAu?$AAr?$AA?9?$AAP?$AAK?$AA?$AA@ 0000000180017838     libucrt:lcidtoname_downlevel.obj
 0002:00002848       ??_C@_1M@LHIPCIEK@?$AAi?$AAd?$AA?9?$AAI?$AAD?$AA?$AA@ 0000000180017848     libucrt:lcidtoname_downlevel.obj
 0002:00002858       ??_C@_1M@MFMOBGI@?$AAu?$AAk?$AA?9?$AAU?$AAA?$AA?$AA@ 0000000180017858     libucrt:lcidtoname_downlevel.obj
 0002:00002868       ??_C@_1M@OBGLJIPL@?$AAb?$AAe?$AA?9?$AAB?$AAY?$AA?$AA@ 0000000180017868     libucrt:lcidtoname_downlevel.obj
 0002:00002878       ??_C@_1M@BCFAJEAD@?$AAs?$AAl?$AA?9?$AAS?$AAI?$AA?$AA@ 0000000180017878     libucrt:lcidtoname_downlevel.obj
 0002:00002888       ??_C@_1M@FKFFEDDN@?$AAe?$AAt?$AA?9?$AAE?$AAE?$AA?$AA@ 0000000180017888     libucrt:lcidtoname_downlevel.obj
 0002:00002898       ??_C@_1M@KGKKAACI@?$AAl?$AAv?$AA?9?$AAL?$AAV?$AA?$AA@ 0000000180017898     libucrt:lcidtoname_downlevel.obj
 0002:000028a8       ??_C@_1M@IFGBIJO@?$AAl?$AAt?$AA?9?$AAL?$AAT?$AA?$AA@ 00000001800178a8     libucrt:lcidtoname_downlevel.obj
 0002:000028b8       ??_C@_1M@FGEAHEDM@?$AAf?$AAa?$AA?9?$AAI?$AAR?$AA?$AA@ 00000001800178b8     libucrt:lcidtoname_downlevel.obj
 0002:000028c8       ??_C@_1M@KBMAIBFN@?$AAv?$AAi?$AA?9?$AAV?$AAN?$AA?$AA@ 00000001800178c8     libucrt:lcidtoname_downlevel.obj
 0002:000028d8       ??_C@_1M@GPCBKDJK@?$AAh?$AAy?$AA?9?$AAA?$AAM?$AA?$AA@ 00000001800178d8     libucrt:lcidtoname_downlevel.obj
 0002:000028e8       ??_C@_1BG@BECMDDJB@?$AAa?$AAz?$AA?9?$AAA?$AAZ?$AA?9?$AAL?$AAa?$AAt?$AAn?$AA?$AA@ 00000001800178e8     libucrt:lcidtoname_downlevel.obj
 0002:00002900       ??_C@_1M@MAOFCAEA@?$AAe?$AAu?$AA?9?$AAE?$AAS?$AA?$AA@ 0000000180017900     libucrt:lcidtoname_downlevel.obj
 0002:00002910       ??_C@_1M@IGHABKPI@?$AAm?$AAk?$AA?9?$AAM?$AAK?$AA?$AA@ 0000000180017910     libucrt:lcidtoname_downlevel.obj
 0002:00002920       ??_C@_1M@IAIGNEJG@?$AAt?$AAn?$AA?9?$AAZ?$AAA?$AA?$AA@ 0000000180017920     libucrt:lcidtoname_downlevel.obj
 0002:00002930       ??_C@_1M@IIJCOJFA@?$AAx?$AAh?$AA?9?$AAZ?$AAA?$AA?$AA@ 0000000180017930     libucrt:lcidtoname_downlevel.obj
 0002:00002940       ??_C@_1M@LGPJHNJH@?$AAz?$AAu?$AA?9?$AAZ?$AAA?$AA?$AA@ 0000000180017940     libucrt:lcidtoname_downlevel.obj
 0002:00002950       ??_C@_1M@HOKAOIO@?$AAa?$AAf?$AA?9?$AAZ?$AAA?$AA?$AA@ 0000000180017950     libucrt:lcidtoname_downlevel.obj
 0002:00002960       ??_C@_1M@DPCLHLIE@?$AAk?$AAa?$AA?9?$AAG?$AAE?$AA?$AA@ 0000000180017960     libucrt:lcidtoname_downlevel.obj
 0002:00002970       ??_C@_1M@BLKMHJBI@?$AAf?$AAo?$AA?9?$AAF?$AAO?$AA?$AA@ 0000000180017970     libucrt:lcidtoname_downlevel.obj
 0002:00002980       ??_C@_1M@LGGJAPPB@?$AAh?$AAi?$AA?9?$AAI?$AAN?$AA?$AA@ 0000000180017980     libucrt:lcidtoname_downlevel.obj
 0002:00002990       ??_C@_1M@FIKPIHFE@?$AAm?$AAt?$AA?9?$AAM?$AAT?$AA?$AA@ 0000000180017990     libucrt:lcidtoname_downlevel.obj
 0002:000029a0       ??_C@_1M@HEGGPBFA@?$AAs?$AAe?$AA?9?$AAN?$AAO?$AA?$AA@ 00000001800179a0     libucrt:lcidtoname_downlevel.obj
 0002:000029b0       ??_C@_1M@EIBJEEPA@?$AAm?$AAs?$AA?9?$AAM?$AAY?$AA?$AA@ 00000001800179b0     libucrt:lcidtoname_downlevel.obj
 0002:000029c0       ??_C@_1M@FHLBGMPP@?$AAk?$AAk?$AA?9?$AAK?$AAZ?$AA?$AA@ 00000001800179c0     libucrt:lcidtoname_downlevel.obj
 0002:000029d0       ??_C@_1M@NGJJLCGI@?$AAk?$AAy?$AA?9?$AAK?$AAG?$AA?$AA@ 00000001800179d0     libucrt:lcidtoname_downlevel.obj
 0002:000029e0       ??_C@_1M@GIENNBFC@?$AAs?$AAw?$AA?9?$AAK?$AAE?$AA?$AA@ 00000001800179e0     libucrt:lcidtoname_downlevel.obj
 0002:000029f0       ??_C@_1BG@NDGMJIMJ@?$AAu?$AAz?$AA?9?$AAU?$AAZ?$AA?9?$AAL?$AAa?$AAt?$AAn?$AA?$AA@ 00000001800179f0     libucrt:lcidtoname_downlevel.obj
 0002:00002a08       ??_C@_1M@IDCCIHBC@?$AAt?$AAt?$AA?9?$AAR?$AAU?$AA?$AA@ 0000000180017a08     libucrt:lcidtoname_downlevel.obj
 0002:00002a18       ??_C@_1M@LOICPMOJ@?$AAb?$AAn?$AA?9?$AAI?$AAN?$AA?$AA@ 0000000180017a18     libucrt:lcidtoname_downlevel.obj
 0002:00002a28       ??_C@_1M@KPKKNEAH@?$AAp?$AAa?$AA?9?$AAI?$AAN?$AA?$AA@ 0000000180017a28     libucrt:lcidtoname_downlevel.obj
 0002:00002a38       ??_C@_1M@PJGPPBOG@?$AAg?$AAu?$AA?9?$AAI?$AAN?$AA?$AA@ 0000000180017a38     libucrt:lcidtoname_downlevel.obj
 0002:00002a48       ??_C@_1M@KMKMOPHI@?$AAt?$AAa?$AA?9?$AAI?$AAN?$AA?$AA@ 0000000180017a48     libucrt:lcidtoname_downlevel.obj
 0002:00002a58       ??_C@_1M@KFEHEPAC@?$AAt?$AAe?$AA?9?$AAI?$AAN?$AA?$AA@ 0000000180017a58     libucrt:lcidtoname_downlevel.obj
 0002:00002a68       ??_C@_1M@CDCLMGHI@?$AAk?$AAn?$AA?9?$AAI?$AAN?$AA?$AA@ 0000000180017a68     libucrt:lcidtoname_downlevel.obj
 0002:00002a78       ??_C@_1M@MIODLDKF@?$AAm?$AAl?$AA?9?$AAI?$AAN?$AA?$AA@ 0000000180017a78     libucrt:lcidtoname_downlevel.obj
 0002:00002a88       ??_C@_1M@PBIEACPO@?$AAm?$AAr?$AA?9?$AAI?$AAN?$AA?$AA@ 0000000180017a88     libucrt:lcidtoname_downlevel.obj
 0002:00002a98       ??_C@_1M@NIDEAGPH@?$AAs?$AAa?$AA?9?$AAI?$AAN?$AA?$AA@ 0000000180017a98     libucrt:lcidtoname_downlevel.obj
 0002:00002aa8       ??_C@_1M@FHIHCBIO@?$AAm?$AAn?$AA?9?$AAM?$AAN?$AA?$AA@ 0000000180017aa8     libucrt:lcidtoname_downlevel.obj
 0002:00002ab8       ??_C@_1M@JAIJPENP@?$AAc?$AAy?$AA?9?$AAG?$AAB?$AA?$AA@ 0000000180017ab8     libucrt:lcidtoname_downlevel.obj
 0002:00002ac8       ??_C@_1M@PHGFBEPN@?$AAg?$AAl?$AA?9?$AAE?$AAS?$AA?$AA@ 0000000180017ac8     libucrt:lcidtoname_downlevel.obj
 0002:00002ad8       ??_C@_1O@KPIPDNCP@?$AAk?$AAo?$AAk?$AA?9?$AAI?$AAN?$AA?$AA@ 0000000180017ad8     libucrt:lcidtoname_downlevel.obj
 0002:00002ae8       ??_C@_1O@KNHJLDJA@?$AAs?$AAy?$AAr?$AA?9?$AAS?$AAY?$AA?$AA@ 0000000180017ae8     libucrt:lcidtoname_downlevel.obj
 0002:00002af8       ??_C@_1O@MKEKBLAH@?$AAd?$AAi?$AAv?$AA?9?$AAM?$AAV?$AA?$AA@ 0000000180017af8     libucrt:lcidtoname_downlevel.obj
 0002:00002b08       ??_C@_1O@OHDCKDDF@?$AAq?$AAu?$AAz?$AA?9?$AAB?$AAO?$AA?$AA@ 0000000180017b08     libucrt:lcidtoname_downlevel.obj
 0002:00002b18       ??_C@_1M@LEPJNLFD@?$AAn?$AAs?$AA?9?$AAZ?$AAA?$AA?$AA@ 0000000180017b18     libucrt:lcidtoname_downlevel.obj
 0002:00002b28       ??_C@_1M@OMLEIIJB@?$AAm?$AAi?$AA?9?$AAN?$AAZ?$AA?$AA@ 0000000180017b28     libucrt:lcidtoname_downlevel.obj
 0002:00002b38       ??_C@_1M@PMPEAILG@?$AAa?$AAr?$AA?9?$AAI?$AAQ?$AA?$AA@ 0000000180017b38     libucrt:lcidtoname_downlevel.obj
 0002:00002b48       ??_C@_1M@CNKPNOEE@?$AAd?$AAe?$AA?9?$AAC?$AAH?$AA?$AA@ 0000000180017b48     libucrt:lcidtoname_downlevel.obj
 0002:00002b58       ??_C@_1M@LKMGMLKO@?$AAe?$AAn?$AA?9?$AAG?$AAB?$AA?$AA@ 0000000180017b58     libucrt:lcidtoname_downlevel.obj
 0002:00002b68       ??_C@_1M@PGKJFFGL@?$AAe?$AAs?$AA?9?$AAM?$AAX?$AA?$AA@ 0000000180017b68     libucrt:lcidtoname_downlevel.obj
 0002:00002b78       ??_C@_1M@DNNANBDC@?$AAf?$AAr?$AA?9?$AAB?$AAE?$AA?$AA@ 0000000180017b78     libucrt:lcidtoname_downlevel.obj
 0002:00002b88       ??_C@_1M@HLGMDFHM@?$AAi?$AAt?$AA?9?$AAC?$AAH?$AA?$AA@ 0000000180017b88     libucrt:lcidtoname_downlevel.obj
 0002:00002b98       ??_C@_1M@CLLBGJH@?$AAn?$AAl?$AA?9?$AAB?$AAE?$AA?$AA@ 0000000180017b98     libucrt:lcidtoname_downlevel.obj
 0002:00002ba8       ??_C@_1M@BODBOGLF@?$AAn?$AAn?$AA?9?$AAN?$AAO?$AA?$AA@ 0000000180017ba8     libucrt:lcidtoname_downlevel.obj
 0002:00002bb8       ??_C@_1M@HFFAHKAD@?$AAp?$AAt?$AA?9?$AAP?$AAT?$AA?$AA@ 0000000180017bb8     libucrt:lcidtoname_downlevel.obj
 0002:00002bc8       ??_C@_1BG@LNOAKHIE@?$AAs?$AAr?$AA?9?$AAS?$AAP?$AA?9?$AAL?$AAa?$AAt?$AAn?$AA?$AA@ 0000000180017bc8     libucrt:lcidtoname_downlevel.obj
 0002:00002be0       ??_C@_1M@HBMHBGAK@?$AAs?$AAv?$AA?9?$AAF?$AAI?$AA?$AA@ 0000000180017be0     libucrt:lcidtoname_downlevel.obj
 0002:00002bf0       ??_C@_1BG@DGCJGJBE@?$AAa?$AAz?$AA?9?$AAA?$AAZ?$AA?9?$AAC?$AAy?$AAr?$AAl?$AA?$AA@ 0000000180017bf0     libucrt:lcidtoname_downlevel.obj
 0002:00002c08       ??_C@_1M@KEJDAAHB@?$AAs?$AAe?$AA?9?$AAS?$AAE?$AA?$AA@ 0000000180017c08     libucrt:lcidtoname_downlevel.obj
 0002:00002c18       ??_C@_1M@HEIBJJAD@?$AAm?$AAs?$AA?9?$AAB?$AAN?$AA?$AA@ 0000000180017c18     libucrt:lcidtoname_downlevel.obj
 0002:00002c28       ??_C@_1BG@PBGJMCEM@?$AAu?$AAz?$AA?9?$AAU?$AAZ?$AA?9?$AAC?$AAy?$AAr?$AAl?$AA?$AA@ 0000000180017c28     libucrt:lcidtoname_downlevel.obj
 0002:00002c40       ??_C@_1O@LAOBCMDF@?$AAq?$AAu?$AAz?$AA?9?$AAE?$AAC?$AA?$AA@ 0000000180017c40     libucrt:lcidtoname_downlevel.obj
 0002:00002c50       ??_C@_1M@POEEMAIO@?$AAa?$AAr?$AA?9?$AAE?$AAG?$AA?$AA@ 0000000180017c50     libucrt:lcidtoname_downlevel.obj
 0002:00002c60       ??_C@_1M@EFAKDEDL@?$AAz?$AAh?$AA?9?$AAH?$AAK?$AA?$AA@ 0000000180017c60     libucrt:lcidtoname_downlevel.obj
 0002:00002c70       ??_C@_1M@HKKIJHGI@?$AAd?$AAe?$AA?9?$AAA?$AAT?$AA?$AA@ 0000000180017c70     libucrt:lcidtoname_downlevel.obj
 0002:00002c80       ??_C@_1M@KBFBEHJF@?$AAe?$AAn?$AA?9?$AAA?$AAU?$AA?$AA@ 0000000180017c80     libucrt:lcidtoname_downlevel.obj
 0002:00002c90       ??_C@_1M@MNPLFAAH@?$AAe?$AAs?$AA?9?$AAE?$AAS?$AA?$AA@ 0000000180017c90     libucrt:lcidtoname_downlevel.obj
 0002:00002ca0       ??_C@_1M@HJOOJFMA@?$AAf?$AAr?$AA?9?$AAC?$AAA?$AA?$AA@ 0000000180017ca0     libucrt:lcidtoname_downlevel.obj
 0002:00002cb0       ??_C@_1BG@JPOFPNAB@?$AAs?$AAr?$AA?9?$AAS?$AAP?$AA?9?$AAC?$AAy?$AAr?$AAl?$AA?$AA@ 0000000180017cb0     libucrt:lcidtoname_downlevel.obj
 0002:00002cc8       ??_C@_1M@LNFOCMOB@?$AAs?$AAe?$AA?9?$AAF?$AAI?$AA?$AA@ 0000000180017cc8     libucrt:lcidtoname_downlevel.obj
 0002:00002cd8       ??_C@_1O@MGJBOAMB@?$AAq?$AAu?$AAz?$AA?9?$AAP?$AAE?$AA?$AA@ 0000000180017cd8     libucrt:lcidtoname_downlevel.obj
 0002:00002ce8       ??_C@_1M@GJINLBOK@?$AAa?$AAr?$AA?9?$AAL?$AAY?$AA?$AA@ 0000000180017ce8     libucrt:lcidtoname_downlevel.obj
 0002:00002cf8       ??_C@_1M@GGMNHJNL@?$AAz?$AAh?$AA?9?$AAS?$AAG?$AA?$AA@ 0000000180017cf8     libucrt:lcidtoname_downlevel.obj
 0002:00002d08       ??_C@_1M@HOIKODND@?$AAd?$AAe?$AA?9?$AAL?$AAU?$AA?$AA@ 0000000180017d08     libucrt:lcidtoname_downlevel.obj
 0002:00002d18       ??_C@_1M@DDOCCGFG@?$AAe?$AAn?$AA?9?$AAC?$AAA?$AA?$AA@ 0000000180017d18     libucrt:lcidtoname_downlevel.obj
 0002:00002d28       ??_C@_1M@BNOEMJLF@?$AAe?$AAs?$AA?9?$AAG?$AAT?$AA?$AA@ 0000000180017d28     libucrt:lcidtoname_downlevel.obj
 0002:00002d38       ??_C@_1M@EOGNKEK@?$AAf?$AAr?$AA?9?$AAC?$AAH?$AA?$AA@ 0000000180017d38     libucrt:lcidtoname_downlevel.obj
 0002:00002d48       ??_C@_1M@FLIDJFHL@?$AAh?$AAr?$AA?9?$AAB?$AAA?$AA?$AA@ 0000000180017d48     libucrt:lcidtoname_downlevel.obj
 0002:00002d58       ??_C@_1O@FMCELNAJ@?$AAs?$AAm?$AAj?$AA?9?$AAN?$AAO?$AA?$AA@ 0000000180017d58     libucrt:lcidtoname_downlevel.obj
 0002:00002d68       ??_C@_1M@JHGLJMGJ@?$AAa?$AAr?$AA?9?$AAD?$AAZ?$AA?$AA@ 0000000180017d68     libucrt:lcidtoname_downlevel.obj
 0002:00002d78       ??_C@_1M@JKKFDCNP@?$AAz?$AAh?$AA?9?$AAM?$AAO?$AA?$AA@ 0000000180017d78     libucrt:lcidtoname_downlevel.obj
 0002:00002d88       ??_C@_1M@GEEFALPE@?$AAd?$AAe?$AA?9?$AAL?$AAI?$AA?$AA@ 0000000180017d88     libucrt:lcidtoname_downlevel.obj
 0002:00002d98       ??_C@_1M@IGEOFBG@?$AAe?$AAn?$AA?9?$AAN?$AAZ?$AA?$AA@ 0000000180017d98     libucrt:lcidtoname_downlevel.obj
 0002:00002da8       ??_C@_1M@KDBONEHP@?$AAe?$AAs?$AA?9?$AAC?$AAR?$AA?$AA@ 0000000180017da8     libucrt:lcidtoname_downlevel.obj
 0002:00002db8       ??_C@_1M@FHMDOHNN@?$AAf?$AAr?$AA?9?$AAL?$AAU?$AA?$AA@ 0000000180017db8     libucrt:lcidtoname_downlevel.obj
 0002:00002dc8       ??_C@_1BG@NFKKMAFG@?$AAb?$AAs?$AA?9?$AAB?$AAA?$AA?9?$AAL?$AAa?$AAt?$AAn?$AA?$AA@ 0000000180017dc8     libucrt:lcidtoname_downlevel.obj
 0002:00002de0       ??_C@_1O@IMNBEMCI@?$AAs?$AAm?$AAj?$AA?9?$AAS?$AAE?$AA?$AA@ 0000000180017de0     libucrt:lcidtoname_downlevel.obj
 0002:00002df0       ??_C@_1M@DHHMBNDP@?$AAa?$AAr?$AA?9?$AAM?$AAA?$AA?$AA@ 0000000180017df0     libucrt:lcidtoname_downlevel.obj
 0002:00002e00       ??_C@_1M@BNBLJCGH@?$AAe?$AAn?$AA?9?$AAI?$AAE?$AA?$AA@ 0000000180017e00     libucrt:lcidtoname_downlevel.obj
 0002:00002e10       ??_C@_1M@GEPAFMDL@?$AAe?$AAs?$AA?9?$AAP?$AAA?$AA?$AA@ 0000000180017e10     libucrt:lcidtoname_downlevel.obj
 0002:00002e20       ??_C@_1M@OJONDMDL@?$AAf?$AAr?$AA?9?$AAM?$AAC?$AA?$AA@ 0000000180017e20     libucrt:lcidtoname_downlevel.obj
 0002:00002e30       ??_C@_1BG@OBCNFJB@?$AAs?$AAr?$AA?9?$AAB?$AAA?$AA?9?$AAL?$AAa?$AAt?$AAn?$AA?$AA@ 0000000180017e30     libucrt:lcidtoname_downlevel.obj
 0002:00002e48       ??_C@_1O@KEMEEGPO@?$AAs?$AAm?$AAa?$AA?9?$AAN?$AAO?$AA?$AA@ 0000000180017e48     libucrt:lcidtoname_downlevel.obj
 0002:00002e58       ??_C@_1M@ELMGFODK@?$AAa?$AAr?$AA?9?$AAT?$AAN?$AA?$AA@ 0000000180017e58     libucrt:lcidtoname_downlevel.obj
 0002:00002e68       ??_C@_1M@BHDLHFAF@?$AAe?$AAn?$AA?9?$AAZ?$AAA?$AA?$AA@ 0000000180017e68     libucrt:lcidtoname_downlevel.obj
 0002:00002e78       ??_C@_1M@BMGIGLIF@?$AAe?$AAs?$AA?9?$AAD?$AAO?$AA?$AA@ 0000000180017e78     libucrt:lcidtoname_downlevel.obj
 0002:00002e88       ??_C@_1BG@CMBHIPBE@?$AAs?$AAr?$AA?9?$AAB?$AAA?$AA?9?$AAC?$AAy?$AAr?$AAl?$AA?$AA@ 0000000180017e88     libucrt:lcidtoname_downlevel.obj
 0002:00002ea0       ??_C@_1O@HEDBLHNP@?$AAs?$AAm?$AAa?$AA?9?$AAS?$AAE?$AA?$AA@ 0000000180017ea0     libucrt:lcidtoname_downlevel.obj
 0002:00002eb0       ??_C@_1M@DAGCADIM@?$AAa?$AAr?$AA?9?$AAO?$AAM?$AA?$AA@ 0000000180017eb0     libucrt:lcidtoname_downlevel.obj
 0002:00002ec0       ??_C@_1M@FODLMICG@?$AAe?$AAn?$AA?9?$AAJ?$AAM?$AA?$AA@ 0000000180017ec0     libucrt:lcidtoname_downlevel.obj
 0002:00002ed0       ??_C@_1M@DNMLCIHB@?$AAe?$AAs?$AA?9?$AAV?$AAE?$AA?$AA@ 0000000180017ed0     libucrt:lcidtoname_downlevel.obj
 0002:00002ee0       ??_C@_1O@EOKHMKJK@?$AAs?$AAm?$AAs?$AA?9?$AAF?$AAI?$AA?$AA@ 0000000180017ee0     libucrt:lcidtoname_downlevel.obj
 0002:00002ef0       ??_C@_1M@CAFJMKOF@?$AAa?$AAr?$AA?9?$AAY?$AAE?$AA?$AA@ 0000000180017ef0     libucrt:lcidtoname_downlevel.obj
 0002:00002f00       ??_C@_1M@CBFHIJLI@?$AAe?$AAn?$AA?9?$AAC?$AAB?$AA?$AA@ 0000000180017f00     libucrt:lcidtoname_downlevel.obj
 0002:00002f10       ??_C@_1M@BGNFLDN@?$AAe?$AAs?$AA?9?$AAC?$AAO?$AA?$AA@ 0000000180017f10     libucrt:lcidtoname_downlevel.obj
 0002:00002f20       ??_C@_1O@JMPHMAMC@?$AAs?$AAm?$AAn?$AA?9?$AAF?$AAI?$AA?$AA@ 0000000180017f20     libucrt:lcidtoname_downlevel.obj
 0002:00002f30       ??_C@_1M@JLANABKE@?$AAa?$AAr?$AA?9?$AAS?$AAY?$AA?$AA@ 0000000180017f30     libucrt:lcidtoname_downlevel.obj
 0002:00002f40       ??_C@_1M@HPKGCFGN@?$AAe?$AAn?$AA?9?$AAB?$AAZ?$AA?$AA@ 0000000180017f40     libucrt:lcidtoname_downlevel.obj
 0002:00002f50       ??_C@_1M@OLJCMLGM@?$AAe?$AAs?$AA?9?$AAP?$AAE?$AA?$AA@ 0000000180017f50     libucrt:lcidtoname_downlevel.obj
 0002:00002f60       ??_C@_1M@MKKGFKLE@?$AAa?$AAr?$AA?9?$AAJ?$AAO?$AA?$AA@ 0000000180017f60     libucrt:lcidtoname_downlevel.obj
 0002:00002f70       ??_C@_1M@EKPGLDNI@?$AAe?$AAn?$AA?9?$AAT?$AAT?$AA?$AA@ 0000000180017f70     libucrt:lcidtoname_downlevel.obj
 0002:00002f80       ??_C@_1M@OONGHFHE@?$AAe?$AAs?$AA?9?$AAA?$AAR?$AA?$AA@ 0000000180017f80     libucrt:lcidtoname_downlevel.obj
 0002:00002f90       ??_C@_1M@OOJFGBHE@?$AAa?$AAr?$AA?9?$AAL?$AAB?$AA?$AA@ 0000000180017f90     libucrt:lcidtoname_downlevel.obj
 0002:00002fa0       ??_C@_1M@GCEJHNEG@?$AAe?$AAn?$AA?9?$AAZ?$AAW?$AA?$AA@ 0000000180017fa0     libucrt:lcidtoname_downlevel.obj
 0002:00002fb0       ??_C@_1M@JNOCAHJI@?$AAe?$AAs?$AA?9?$AAE?$AAC?$AA?$AA@ 0000000180017fb0     libucrt:lcidtoname_downlevel.obj
 0002:00002fc0       ??_C@_1M@JEFHPGGB@?$AAa?$AAr?$AA?9?$AAK?$AAW?$AA?$AA@ 0000000180017fc0     libucrt:lcidtoname_downlevel.obj
 0002:00002fd0       ??_C@_1M@MLKIBJOJ@?$AAe?$AAn?$AA?9?$AAP?$AAH?$AA?$AA@ 0000000180017fd0     libucrt:lcidtoname_downlevel.obj
 0002:00002fe0       ??_C@_1M@BDNIPEND@?$AAe?$AAs?$AA?9?$AAC?$AAL?$AA?$AA@ 0000000180017fe0     libucrt:lcidtoname_downlevel.obj
 0002:00002ff0       ??_C@_1M@MPNMEKBD@?$AAa?$AAr?$AA?9?$AAA?$AAE?$AA?$AA@ 0000000180017ff0     libucrt:lcidtoname_downlevel.obj
 0002:00003000       ??_C@_1M@KBJALCPI@?$AAe?$AAs?$AA?9?$AAU?$AAY?$AA?$AA@ 0000000180018000     libucrt:lcidtoname_downlevel.obj
 0002:00003010       ??_C@_1M@LLCCOAGA@?$AAa?$AAr?$AA?9?$AAB?$AAH?$AA?$AA@ 0000000180018010     libucrt:lcidtoname_downlevel.obj
 0002:00003020       ??_C@_1M@PBFNCDEL@?$AAe?$AAs?$AA?9?$AAP?$AAY?$AA?$AA@ 0000000180018020     libucrt:lcidtoname_downlevel.obj
 0002:00003030       ??_C@_1M@EDGINPNP@?$AAa?$AAr?$AA?9?$AAQ?$AAA?$AA?$AA@ 0000000180018030     libucrt:lcidtoname_downlevel.obj
 0002:00003040       ??_C@_1M@MKDBIIJI@?$AAe?$AAs?$AA?9?$AAB?$AAO?$AA?$AA@ 0000000180018040     libucrt:lcidtoname_downlevel.obj
 0002:00003050       ??_C@_1M@CPKKEBLD@?$AAe?$AAs?$AA?9?$AAS?$AAV?$AA?$AA@ 0000000180018050     libucrt:lcidtoname_downlevel.obj
 0002:00003060       ??_C@_1M@NDBGMMJL@?$AAe?$AAs?$AA?9?$AAH?$AAN?$AA?$AA@ 0000000180018060     libucrt:lcidtoname_downlevel.obj
 0002:00003070       ??_C@_1M@JIJIBHDP@?$AAe?$AAs?$AA?9?$AAN?$AAI?$AA?$AA@ 0000000180018070     libucrt:lcidtoname_downlevel.obj
 0002:00003080       ??_C@_1M@CGFMKEEK@?$AAe?$AAs?$AA?9?$AAP?$AAR?$AA?$AA@ 0000000180018080     libucrt:lcidtoname_downlevel.obj
 0002:00003090       ??_C@_1O@ICJHKIIK@?$AAz?$AAh?$AA?9?$AAC?$AAH?$AAT?$AA?$AA@ 0000000180018090     libucrt:lcidtoname_downlevel.obj
 0002:000030a0       ??_C@_15CLNEJCE@?$AAs?$AAr?$AA?$AA@ 00000001800180a0     libucrt:lcidtoname_downlevel.obj
 0002:00003ef0       ??_C@_1M@KAHEKEIG@?$AAa?$AAf?$AA?9?$AAz?$AAa?$AA?$AA@ 0000000180018ef0     libucrt:lcidtoname_downlevel.obj
 0002:00003f00       ??_C@_1M@GIECOABL@?$AAa?$AAr?$AA?9?$AAa?$AAe?$AA?$AA@ 0000000180018f00     libucrt:lcidtoname_downlevel.obj
 0002:00003f10       ??_C@_1M@BMLMEKGI@?$AAa?$AAr?$AA?9?$AAb?$AAh?$AA?$AA@ 0000000180018f10     libucrt:lcidtoname_downlevel.obj
 0002:00003f20       ??_C@_1M@DAPFDGGB@?$AAa?$AAr?$AA?9?$AAd?$AAz?$AA?$AA@ 0000000180018f20     libucrt:lcidtoname_downlevel.obj
 0002:00003f30       ??_C@_1M@FJNKGKIG@?$AAa?$AAr?$AA?9?$AAe?$AAg?$AA?$AA@ 0000000180018f30     libucrt:lcidtoname_downlevel.obj
 0002:00003f40       ??_C@_1M@FLGKKCLO@?$AAa?$AAr?$AA?9?$AAi?$AAq?$AA?$AA@ 0000000180018f40     libucrt:lcidtoname_downlevel.obj
 0002:00003f50       ??_C@_1M@GNDIPALM@?$AAa?$AAr?$AA?9?$AAj?$AAo?$AA?$AA@ 0000000180018f50     libucrt:lcidtoname_downlevel.obj
 0002:00003f60       ??_C@_1M@DDMJFMGJ@?$AAa?$AAr?$AA?9?$AAk?$AAw?$AA?$AA@ 0000000180018f60     libucrt:lcidtoname_downlevel.obj
 0002:00003f70       ??_C@_1M@EJALMLHM@?$AAa?$AAr?$AA?9?$AAl?$AAb?$AA?$AA@ 0000000180018f70     libucrt:lcidtoname_downlevel.obj
 0002:00003f80       ??_C@_1M@MOBDBLOC@?$AAa?$AAr?$AA?9?$AAl?$AAy?$AA?$AA@ 0000000180018f80     libucrt:lcidtoname_downlevel.obj
 0002:00003f90       ??_C@_1M@JAOCLHDH@?$AAa?$AAr?$AA?9?$AAm?$AAa?$AA?$AA@ 0000000180018f90     libucrt:lcidtoname_downlevel.obj
 0002:00003fa0       ??_C@_1M@JHPMKJIE@?$AAa?$AAr?$AA?9?$AAo?$AAm?$AA?$AA@ 0000000180018fa0     libucrt:lcidtoname_downlevel.obj
 0002:00003fb0       ??_C@_1M@OEPGHFNH@?$AAa?$AAr?$AA?9?$AAq?$AAa?$AA?$AA@ 0000000180018fb0     libucrt:lcidtoname_downlevel.obj
 0002:00003fc0       ??_C@_1M@KJDONENM@?$AAa?$AAr?$AA?9?$AAs?$AAa?$AA?$AA@ 0000000180018fc0     libucrt:lcidtoname_downlevel.obj
 0002:00003fd0       ??_C@_1M@DMJDKLKM@?$AAa?$AAr?$AA?9?$AAs?$AAy?$AA?$AA@ 0000000180018fd0     libucrt:lcidtoname_downlevel.obj
 0002:00003fe0       ??_C@_1M@OMFIPEDC@?$AAa?$AAr?$AA?9?$AAt?$AAn?$AA?$AA@ 0000000180018fe0     libucrt:lcidtoname_downlevel.obj
 0002:00003ff0       ??_C@_1M@IHMHGAON@?$AAa?$AAr?$AA?9?$AAy?$AAe?$AA?$AA@ 0000000180018ff0     libucrt:lcidtoname_downlevel.obj
 0002:00004000       ??_C@_1BG@KDCPGJGB@?$AAa?$AAz?$AA?9?$AAa?$AAz?$AA?9?$AAc?$AAy?$AAr?$AAl?$AA?$AA@ 0000000180019000     libucrt:lcidtoname_downlevel.obj
 0002:00004018       ??_C@_1BG@IBCKDDOE@?$AAa?$AAz?$AA?9?$AAa?$AAz?$AA?9?$AAl?$AAa?$AAt?$AAn?$AA?$AA@ 0000000180019018     libucrt:lcidtoname_downlevel.obj
 0002:00004030       ??_C@_1M@EGPFDCPD@?$AAb?$AAe?$AA?9?$AAb?$AAy?$AA?$AA@ 0000000180019030     libucrt:lcidtoname_downlevel.obj
 0002:00004040       ??_C@_1M@PCMGMCGC@?$AAb?$AAg?$AA?9?$AAb?$AAg?$AA?$AA@ 0000000180019040     libucrt:lcidtoname_downlevel.obj
 0002:00004050       ??_C@_1M@BJBMFGOB@?$AAb?$AAn?$AA?9?$AAi?$AAn?$AA?$AA@ 0000000180019050     libucrt:lcidtoname_downlevel.obj
 0002:00004060       ??_C@_1BG@EAKMMACD@?$AAb?$AAs?$AA?9?$AAb?$AAa?$AA?9?$AAl?$AAa?$AAt?$AAn?$AA?$AA@ 0000000180019060     libucrt:lcidtoname_downlevel.obj
 0002:00004078       ??_C@_1M@KGADAODK@?$AAc?$AAa?$AA?9?$AAe?$AAs?$AA?$AA@ 0000000180019078     libucrt:lcidtoname_downlevel.obj
 0002:00004088       ??_C@_1M@COAJPDHI@?$AAc?$AAs?$AA?9?$AAc?$AAz?$AA?$AA@ 0000000180019088     libucrt:lcidtoname_downlevel.obj
 0002:00004098       ??_C@_1M@DHBHFONH@?$AAc?$AAy?$AA?9?$AAg?$AAb?$AA?$AA@ 0000000180019098     libucrt:lcidtoname_downlevel.obj
 0002:000040a8       ??_C@_1M@IMGKELGA@?$AAd?$AAa?$AA?9?$AAd?$AAk?$AA?$AA@ 00000001800190a8     libucrt:lcidtoname_downlevel.obj
 0002:000040b8       ??_C@_1M@NNDGDNGA@?$AAd?$AAe?$AA?9?$AAa?$AAt?$AA?$AA@ 00000001800190b8     libucrt:lcidtoname_downlevel.obj
 0002:000040c8       ??_C@_1M@IKDBHEEM@?$AAd?$AAe?$AA?9?$AAc?$AAh?$AA?$AA@ 00000001800190c8     libucrt:lcidtoname_downlevel.obj
 0002:000040d8       ??_C@_1M@GFFOJMCJ@?$AAd?$AAe?$AA?9?$AAd?$AAe?$AA?$AA@ 00000001800190d8     libucrt:lcidtoname_downlevel.obj
 0002:000040e8       ??_C@_1M@MDNLKBPM@?$AAd?$AAe?$AA?9?$AAl?$AAi?$AA?$AA@ 00000001800190e8     libucrt:lcidtoname_downlevel.obj
 0002:000040f8       ??_C@_1M@NJBEEJNL@?$AAd?$AAe?$AA?9?$AAl?$AAu?$AA?$AA@ 00000001800190f8     libucrt:lcidtoname_downlevel.obj
 0002:00004108       ??_C@_1O@GNNELBAP@?$AAd?$AAi?$AAv?$AA?9?$AAm?$AAv?$AA?$AA@ 0000000180019108     libucrt:lcidtoname_downlevel.obj
 0002:00004118       ??_C@_1M@EJLEOGAE@?$AAe?$AAl?$AA?9?$AAg?$AAr?$AA?$AA@ 0000000180019118     libucrt:lcidtoname_downlevel.obj
 0002:00004128       ??_C@_1M@GMPONJN@?$AAe?$AAn?$AA?9?$AAa?$AAu?$AA?$AA@ 0000000180019128     libucrt:lcidtoname_downlevel.obj
 0002:00004138       ??_C@_1M@NIDIIPGF@?$AAe?$AAn?$AA?9?$AAb?$AAz?$AA?$AA@ 0000000180019138     libucrt:lcidtoname_downlevel.obj
 0002:00004148       ??_C@_1M@JEHMIMFO@?$AAe?$AAn?$AA?9?$AAc?$AAa?$AA?$AA@ 0000000180019148     libucrt:lcidtoname_downlevel.obj
 0002:00004158       ??_C@_1M@IGMJCDLA@?$AAe?$AAn?$AA?9?$AAc?$AAb?$AA?$AA@ 0000000180019158     libucrt:lcidtoname_downlevel.obj
 0002:00004168       ??_C@_1M@BNFIGBKG@?$AAe?$AAn?$AA?9?$AAg?$AAb?$AA?$AA@ 0000000180019168     libucrt:lcidtoname_downlevel.obj
 0002:00004178       ??_C@_1M@LKIFDIGP@?$AAe?$AAn?$AA?9?$AAi?$AAe?$AA?$AA@ 0000000180019178     libucrt:lcidtoname_downlevel.obj
 0002:00004188       ??_C@_1M@PJKFGCCO@?$AAe?$AAn?$AA?9?$AAj?$AAm?$AA?$AA@ 0000000180019188     libucrt:lcidtoname_downlevel.obj
 0002:00004198       ??_C@_1M@KPPKEPBO@?$AAe?$AAn?$AA?9?$AAn?$AAz?$AA?$AA@ 0000000180019198     libucrt:lcidtoname_downlevel.obj
 0002:000041a8       ??_C@_1M@GMDGLDOB@?$AAe?$AAn?$AA?9?$AAp?$AAh?$AA?$AA@ 00000001800191a8     libucrt:lcidtoname_downlevel.obj
 0002:000041b8       ??_C@_1M@ONGIBJNA@?$AAe?$AAn?$AA?9?$AAt?$AAt?$AA?$AA@ 00000001800191b8     libucrt:lcidtoname_downlevel.obj
 0002:000041c8       ??_C@_1M@LLODPCMM@?$AAe?$AAn?$AA?9?$AAu?$AAs?$AA?$AA@ 00000001800191c8     libucrt:lcidtoname_downlevel.obj
 0002:000041d8       ??_C@_1M@LAKFNPAN@?$AAe?$AAn?$AA?9?$AAz?$AAa?$AA?$AA@ 00000001800191d8     libucrt:lcidtoname_downlevel.obj
 0002:000041e8       ??_C@_1M@MFNHNHEO@?$AAe?$AAn?$AA?9?$AAz?$AAw?$AA?$AA@ 00000001800191e8     libucrt:lcidtoname_downlevel.obj
 0002:000041f8       ??_C@_1M@EJEINPHM@?$AAe?$AAs?$AA?9?$AAa?$AAr?$AA?$AA@ 00000001800191f8     libucrt:lcidtoname_downlevel.obj
 0002:00004208       ??_C@_1M@GNKPCCJA@?$AAe?$AAs?$AA?9?$AAb?$AAo?$AA?$AA@ 0000000180019208     libucrt:lcidtoname_downlevel.obj
 0002:00004218       ??_C@_1M@LEEGFONL@?$AAe?$AAs?$AA?9?$AAc?$AAl?$AA?$AA@ 0000000180019218     libucrt:lcidtoname_downlevel.obj
 0002:00004228       ??_C@_1M@KGPDPBDF@?$AAe?$AAs?$AA?9?$AAc?$AAo?$AA?$AA@ 0000000180019228     libucrt:lcidtoname_downlevel.obj
 0002:00004238       ??_C@_1M@EIAHOHH@?$AAe?$AAs?$AA?9?$AAc?$AAr?$AA?$AA@ 0000000180019238     libucrt:lcidtoname_downlevel.obj
 0002:00004248       ??_C@_1M@LLPGMBIN@?$AAe?$AAs?$AA?9?$AAd?$AAo?$AA?$AA@ 0000000180019248     libucrt:lcidtoname_downlevel.obj
 0002:00004258       ??_C@_1M@DKHMKNJA@?$AAe?$AAs?$AA?9?$AAe?$AAc?$AA?$AA@ 0000000180019258     libucrt:lcidtoname_downlevel.obj
 0002:00004268       ??_C@_1M@GKGFPKAP@?$AAe?$AAs?$AA?9?$AAe?$AAs?$AA?$AA@ 0000000180019268     libucrt:lcidtoname_downlevel.obj
 0002:00004278       ??_C@_1M@LKHKGDLN@?$AAe?$AAs?$AA?9?$AAg?$AAt?$AA?$AA@ 0000000180019278     libucrt:lcidtoname_downlevel.obj
 0002:00004288       ??_C@_1M@HEIIGGJD@?$AAe?$AAs?$AA?9?$AAh?$AAn?$AA?$AA@ 0000000180019288     libucrt:lcidtoname_downlevel.obj
 0002:00004298       ??_C@_1M@FBDHPPGD@?$AAe?$AAs?$AA?9?$AAm?$AAx?$AA?$AA@ 0000000180019298     libucrt:lcidtoname_downlevel.obj
 0002:000042a8       ??_C@_1M@DPAGLNDH@?$AAe?$AAs?$AA?9?$AAn?$AAi?$AA?$AA@ 00000001800192a8     libucrt:lcidtoname_downlevel.obj
 0002:000042b8       ??_C@_1M@MDGOPGDD@?$AAe?$AAs?$AA?9?$AAp?$AAa?$AA?$AA@ 00000001800192b8     libucrt:lcidtoname_downlevel.obj
 0002:000042c8       ??_C@_1M@EMAMGBGE@?$AAe?$AAs?$AA?9?$AAp?$AAe?$AA?$AA@ 00000001800192c8     libucrt:lcidtoname_downlevel.obj
 0002:000042d8       ??_C@_1M@IBMCAOEC@?$AAe?$AAs?$AA?9?$AAp?$AAr?$AA?$AA@ 00000001800192d8     libucrt:lcidtoname_downlevel.obj
 0002:000042e8       ??_C@_1M@FGMDIJED@?$AAe?$AAs?$AA?9?$AAp?$AAy?$AA?$AA@ 00000001800192e8     libucrt:lcidtoname_downlevel.obj
 0002:000042f8       ??_C@_1M@IIDEOLLL@?$AAe?$AAs?$AA?9?$AAs?$AAv?$AA?$AA@ 00000001800192f8     libucrt:lcidtoname_downlevel.obj
 0002:00004308       ??_C@_1M@GAOBIPA@?$AAe?$AAs?$AA?9?$AAu?$AAy?$AA?$AA@ 0000000180019308     libucrt:lcidtoname_downlevel.obj
 0002:00004318       ??_C@_1M@JKFFICHJ@?$AAe?$AAs?$AA?9?$AAv?$AAe?$AA?$AA@ 0000000180019318     libucrt:lcidtoname_downlevel.obj
 0002:00004328       ??_C@_1M@PNMLOJDF@?$AAe?$AAt?$AA?9?$AAe?$AAe?$AA?$AA@ 0000000180019328     libucrt:lcidtoname_downlevel.obj
 0002:00004338       ??_C@_1M@GHHLIKEI@?$AAe?$AAu?$AA?9?$AAe?$AAs?$AA?$AA@ 0000000180019338     libucrt:lcidtoname_downlevel.obj
 0002:00004348       ??_C@_1M@PBNONODE@?$AAf?$AAa?$AA?9?$AAi?$AAr?$AA?$AA@ 0000000180019348     libucrt:lcidtoname_downlevel.obj
 0002:00004358       ??_C@_1M@JEEHPMIL@?$AAf?$AAi?$AA?9?$AAf?$AAi?$AA?$AA@ 0000000180019358     libucrt:lcidtoname_downlevel.obj
 0002:00004368       ??_C@_1M@LMDCNDBA@?$AAf?$AAo?$AA?9?$AAf?$AAo?$AA?$AA@ 0000000180019368     libucrt:lcidtoname_downlevel.obj
 0002:00004378       ??_C@_1M@JKEOHLDK@?$AAf?$AAr?$AA?9?$AAb?$AAe?$AA?$AA@ 0000000180019378     libucrt:lcidtoname_downlevel.obj
 0002:00004388       ??_C@_1M@NOHADPMI@?$AAf?$AAr?$AA?9?$AAc?$AAa?$AA?$AA@ 0000000180019388     libucrt:lcidtoname_downlevel.obj
 0002:00004398       ??_C@_1M@KDHIHAEC@?$AAf?$AAr?$AA?9?$AAc?$AAh?$AA?$AA@ 0000000180019398     libucrt:lcidtoname_downlevel.obj
 0002:000043a8       ??_C@_1M@MMBBFGAK@?$AAf?$AAr?$AA?9?$AAf?$AAr?$AA?$AA@ 00000001800193a8     libucrt:lcidtoname_downlevel.obj
 0002:000043b8       ??_C@_1M@PAFNENNF@?$AAf?$AAr?$AA?9?$AAl?$AAu?$AA?$AA@ 00000001800193b8     libucrt:lcidtoname_downlevel.obj
 0002:000043c8       ??_C@_1M@EOHDJGDD@?$AAf?$AAr?$AA?9?$AAm?$AAc?$AA?$AA@ 00000001800193c8     libucrt:lcidtoname_downlevel.obj
 0002:000043d8       ??_C@_1M@FAPLLOPF@?$AAg?$AAl?$AA?9?$AAe?$AAs?$AA?$AA@ 00000001800193d8     libucrt:lcidtoname_downlevel.obj
 0002:000043e8       ??_C@_1M@FOPBFLOO@?$AAg?$AAu?$AA?9?$AAi?$AAn?$AA?$AA@ 00000001800193e8     libucrt:lcidtoname_downlevel.obj
 0002:000043f8       ??_C@_1M@KBMCINPM@?$AAh?$AAe?$AA?9?$AAi?$AAl?$AA?$AA@ 00000001800193f8     libucrt:lcidtoname_downlevel.obj
 0002:00004408       ??_C@_1M@BBPHKFPJ@?$AAh?$AAi?$AA?9?$AAi?$AAn?$AA?$AA@ 0000000180019408     libucrt:lcidtoname_downlevel.obj
 0002:00004418       ??_C@_1M@PMBNDPHD@?$AAh?$AAr?$AA?9?$AAb?$AAa?$AA?$AA@ 0000000180019418     libucrt:lcidtoname_downlevel.obj
 0002:00004428       ??_C@_1M@BPCKOEGE@?$AAh?$AAr?$AA?9?$AAh?$AAr?$AA?$AA@ 0000000180019428     libucrt:lcidtoname_downlevel.obj
 0002:00004438       ??_C@_1M@GACBMHKE@?$AAh?$AAu?$AA?9?$AAh?$AAu?$AA?$AA@ 0000000180019438     libucrt:lcidtoname_downlevel.obj
 0002:00004448       ??_C@_1M@MILPAJJC@?$AAh?$AAy?$AA?9?$AAa?$AAm?$AA?$AA@ 0000000180019448     libucrt:lcidtoname_downlevel.obj
 0002:00004458       ??_C@_1M@BABBICEC@?$AAi?$AAd?$AA?9?$AAi?$AAd?$AA?$AA@ 0000000180019458     libucrt:lcidtoname_downlevel.obj
 0002:00004468       ??_C@_1M@BIKNHHPF@?$AAi?$AAs?$AA?9?$AAi?$AAs?$AA?$AA@ 0000000180019468     libucrt:lcidtoname_downlevel.obj
 0002:00004478       ??_C@_1M@NMPCJPHE@?$AAi?$AAt?$AA?9?$AAc?$AAh?$AA?$AA@ 0000000180019478     libucrt:lcidtoname_downlevel.obj
 0002:00004488       ??_C@_1M@GHKGFEDF@?$AAi?$AAt?$AA?9?$AAi?$AAt?$AA?$AA@ 0000000180019488     libucrt:lcidtoname_downlevel.obj
 0002:00004498       ??_C@_1M@NIEJCJJA@?$AAj?$AAa?$AA?9?$AAj?$AAp?$AA?$AA@ 0000000180019498     libucrt:lcidtoname_downlevel.obj
 0002:000044a8       ??_C@_1M@JILFNBIM@?$AAk?$AAa?$AA?9?$AAg?$AAe?$AA?$AA@ 00000001800194a8     libucrt:lcidtoname_downlevel.obj
 0002:000044b8       ??_C@_1M@PACPMGPH@?$AAk?$AAk?$AA?9?$AAk?$AAz?$AA?$AA@ 00000001800194b8     libucrt:lcidtoname_downlevel.obj
 0002:000044c8       ??_C@_1M@IELFGMHA@?$AAk?$AAn?$AA?9?$AAi?$AAn?$AA?$AA@ 00000001800194c8     libucrt:lcidtoname_downlevel.obj
 0002:000044d8       ??_C@_1O@IBBJHCH@?$AAk?$AAo?$AAk?$AA?9?$AAi?$AAn?$AA?$AA@ 00000001800194d8     libucrt:lcidtoname_downlevel.obj
 0002:000044e8       ??_C@_1M@DMHAEOGC@?$AAk?$AAo?$AA?9?$AAk?$AAr?$AA?$AA@ 00000001800194e8     libucrt:lcidtoname_downlevel.obj
 0002:000044f8       ??_C@_1M@HBAHBIGA@?$AAk?$AAy?$AA?9?$AAk?$AAg?$AA?$AA@ 00000001800194f8     libucrt:lcidtoname_downlevel.obj
 0002:00004508       ??_C@_1M@KPMILCJG@?$AAl?$AAt?$AA?9?$AAl?$AAt?$AA?$AA@ 0000000180019508     libucrt:lcidtoname_downlevel.obj
 0002:00004518       ??_C@_1M@BDEKKCA@?$AAl?$AAv?$AA?9?$AAl?$AAv?$AA?$AA@ 0000000180019518     libucrt:lcidtoname_downlevel.obj
 0002:00004528       ??_C@_1M@ELCKCCJJ@?$AAm?$AAi?$AA?9?$AAn?$AAz?$AA?$AA@ 0000000180019528     libucrt:lcidtoname_downlevel.obj
 0002:00004538       ??_C@_1M@CBOOLAPA@?$AAm?$AAk?$AA?9?$AAm?$AAk?$AA?$AA@ 0000000180019538     libucrt:lcidtoname_downlevel.obj
 0002:00004548       ??_C@_1M@GPHNBJKN@?$AAm?$AAl?$AA?9?$AAi?$AAn?$AA?$AA@ 0000000180019548     libucrt:lcidtoname_downlevel.obj
 0002:00004558       ??_C@_1M@PABJILIG@?$AAm?$AAn?$AA?9?$AAm?$AAn?$AA?$AA@ 0000000180019558     libucrt:lcidtoname_downlevel.obj
 0002:00004568       ??_C@_1M@FGBKKIPG@?$AAm?$AAr?$AA?9?$AAi?$AAn?$AA?$AA@ 0000000180019568     libucrt:lcidtoname_downlevel.obj
 0002:00004578       ??_C@_1M@NDBPDDAL@?$AAm?$AAs?$AA?9?$AAb?$AAn?$AA?$AA@ 0000000180019578     libucrt:lcidtoname_downlevel.obj
 0002:00004588       ??_C@_1M@OPIHOOPI@?$AAm?$AAs?$AA?9?$AAm?$AAy?$AA?$AA@ 0000000180019588     libucrt:lcidtoname_downlevel.obj
 0002:00004598       ??_C@_1M@PPDBCNFM@?$AAm?$AAt?$AA?9?$AAm?$AAt?$AA?$AA@ 0000000180019598     libucrt:lcidtoname_downlevel.obj
 0002:000045a8       ??_C@_1M@KDJDKMDD@?$AAn?$AAb?$AA?9?$AAn?$AAo?$AA?$AA@ 00000001800195a8     libucrt:lcidtoname_downlevel.obj
 0002:000045b8       ??_C@_1M@KFCFLMJP@?$AAn?$AAl?$AA?9?$AAb?$AAe?$AA?$AA@ 00000001800195b8     libucrt:lcidtoname_downlevel.obj
 0002:000045c8       ??_C@_1M@KPOPDDGO@?$AAn?$AAl?$AA?9?$AAn?$AAl?$AA?$AA@ 00000001800195c8     libucrt:lcidtoname_downlevel.obj
 0002:000045d8       ??_C@_1M@LJKPEMLN@?$AAn?$AAn?$AA?9?$AAn?$AAo?$AA?$AA@ 00000001800195d8     libucrt:lcidtoname_downlevel.obj
 0002:000045e8       ??_C@_1M@BDGHHBFL@?$AAn?$AAs?$AA?9?$AAz?$AAa?$AA?$AA@ 00000001800195e8     libucrt:lcidtoname_downlevel.obj
 0002:000045f8       ??_C@_1M@IDEHOAP@?$AAp?$AAa?$AA?9?$AAi?$AAn?$AA?$AA@ 00000001800195f8     libucrt:lcidtoname_downlevel.obj
 0002:00004608       ??_C@_1M@HDBKGOGH@?$AAp?$AAl?$AA?9?$AAp?$AAl?$AA?$AA@ 0000000180019608     libucrt:lcidtoname_downlevel.obj
 0002:00004618       ??_C@_1M@LJLLCMEH@?$AAp?$AAt?$AA?9?$AAb?$AAr?$AA?$AA@ 0000000180019618     libucrt:lcidtoname_downlevel.obj
 0002:00004628       ??_C@_1M@NCMONAAL@?$AAp?$AAt?$AA?9?$AAp?$AAt?$AA?$AA@ 0000000180019628     libucrt:lcidtoname_downlevel.obj
 0002:00004638       ??_C@_1O@EAKMAJDN@?$AAq?$AAu?$AAz?$AA?9?$AAb?$AAo?$AA?$AA@ 0000000180019638     libucrt:lcidtoname_downlevel.obj
 0002:00004648       ??_C@_1O@BHHPIGDN@?$AAq?$AAu?$AAz?$AA?9?$AAe?$AAc?$AA?$AA@ 0000000180019648     libucrt:lcidtoname_downlevel.obj
 0002:00004658       ??_C@_1O@GBAPEKMJ@?$AAq?$AAu?$AAz?$AA?9?$AAp?$AAe?$AA?$AA@ 0000000180019658     libucrt:lcidtoname_downlevel.obj
 0002:00004668       ??_C@_1M@CLGLEFBO@?$AAr?$AAo?$AA?9?$AAr?$AAo?$AA?$AA@ 0000000180019668     libucrt:lcidtoname_downlevel.obj
 0002:00004678       ??_C@_1M@CEEDODME@?$AAr?$AAu?$AA?9?$AAr?$AAu?$AA?$AA@ 0000000180019678     libucrt:lcidtoname_downlevel.obj
 0002:00004688       ??_C@_1M@HPKKKMPP@?$AAs?$AAa?$AA?9?$AAi?$AAn?$AA?$AA@ 0000000180019688     libucrt:lcidtoname_downlevel.obj
 0002:00004698       ??_C@_1M@BKMAIGOJ@?$AAs?$AAe?$AA?9?$AAf?$AAi?$AA?$AA@ 0000000180019698     libucrt:lcidtoname_downlevel.obj
 0002:000046a8       ??_C@_1M@NDPIFLFI@?$AAs?$AAe?$AA?9?$AAn?$AAo?$AA?$AA@ 00000001800196a8     libucrt:lcidtoname_downlevel.obj
 0002:000046b8       ??_C@_1M@DANKKHJ@?$AAs?$AAe?$AA?9?$AAs?$AAe?$AA?$AA@ 00000001800196b8     libucrt:lcidtoname_downlevel.obj
 0002:000046c8       ??_C@_1M@PNBLONPJ@?$AAs?$AAk?$AA?9?$AAs?$AAk?$AA?$AA@ 00000001800196c8     libucrt:lcidtoname_downlevel.obj
 0002:000046d8       ??_C@_1M@LFMODOAL@?$AAs?$AAl?$AA?9?$AAs?$AAi?$AA?$AA@ 00000001800196d8     libucrt:lcidtoname_downlevel.obj
 0002:000046e8       ??_C@_1O@DFKOMPG@?$AAs?$AAm?$AAa?$AA?9?$AAn?$AAo?$AA?$AA@ 00000001800196e8     libucrt:lcidtoname_downlevel.obj
 0002:000046f8       ??_C@_1O@NDKPBNNH@?$AAs?$AAm?$AAa?$AA?9?$AAs?$AAe?$AA?$AA@ 00000001800196f8     libucrt:lcidtoname_downlevel.obj
 0002:00004708       ??_C@_1O@PLLKBHAB@?$AAs?$AAm?$AAj?$AA?9?$AAn?$AAo?$AA?$AA@ 0000000180019708     libucrt:lcidtoname_downlevel.obj
 0002:00004718       ??_C@_1O@CLEPOGCA@?$AAs?$AAm?$AAj?$AA?9?$AAs?$AAe?$AA?$AA@ 0000000180019718     libucrt:lcidtoname_downlevel.obj
 0002:00004728       ??_C@_1O@DLGJGKMK@?$AAs?$AAm?$AAn?$AA?9?$AAf?$AAi?$AA?$AA@ 0000000180019728     libucrt:lcidtoname_downlevel.obj
 0002:00004738       ??_C@_1O@OJDJGAJC@?$AAs?$AAm?$AAs?$AA?9?$AAf?$AAi?$AA?$AA@ 0000000180019738     libucrt:lcidtoname_downlevel.obj
 0002:00004748       ??_C@_1M@BOFOGHPB@?$AAs?$AAq?$AA?9?$AAa?$AAl?$AA?$AA@ 0000000180019748     libucrt:lcidtoname_downlevel.obj
 0002:00004758       ??_C@_1BG@LJBBIPGB@?$AAs?$AAr?$AA?9?$AAb?$AAa?$AA?9?$AAc?$AAy?$AAr?$AAl?$AA?$AA@ 0000000180019758     libucrt:lcidtoname_downlevel.obj
 0002:00004770       ??_C@_1BG@JLBENFOE@?$AAs?$AAr?$AA?9?$AAb?$AAa?$AA?9?$AAl?$AAa?$AAt?$AAn?$AA?$AA@ 0000000180019770     libucrt:lcidtoname_downlevel.obj
 0002:00004788       ??_C@_1BG@KODPNHE@?$AAs?$AAr?$AA?9?$AAs?$AAp?$AA?9?$AAc?$AAy?$AAr?$AAl?$AA?$AA@ 0000000180019788     libucrt:lcidtoname_downlevel.obj
 0002:000047a0       ??_C@_1BG@CIOGKHPB@?$AAs?$AAr?$AA?9?$AAs?$AAp?$AA?9?$AAl?$AAa?$AAt?$AAn?$AA?$AA@ 00000001800197a0     libucrt:lcidtoname_downlevel.obj
 0002:000047b8       ??_C@_1M@NGFJLMAC@?$AAs?$AAv?$AA?9?$AAf?$AAi?$AA?$AA@ 00000001800197b8     libucrt:lcidtoname_downlevel.obj
 0002:000047c8       ??_C@_1M@MPJEJAJC@?$AAs?$AAv?$AA?9?$AAs?$AAe?$AA?$AA@ 00000001800197c8     libucrt:lcidtoname_downlevel.obj
 0002:000047d8       ??_C@_1M@MPNDHLFK@?$AAs?$AAw?$AA?9?$AAk?$AAe?$AA?$AA@ 00000001800197d8     libucrt:lcidtoname_downlevel.obj
 0002:000047e8       ??_C@_1O@KOHBJJI@?$AAs?$AAy?$AAr?$AA?9?$AAs?$AAy?$AA?$AA@ 00000001800197e8     libucrt:lcidtoname_downlevel.obj
 0002:000047f8       ??_C@_1M@LDCEFHA@?$AAt?$AAa?$AA?9?$AAi?$AAn?$AA?$AA@ 00000001800197f8     libucrt:lcidtoname_downlevel.obj
 0002:00004808       ??_C@_1M@CNJOFAK@?$AAt?$AAe?$AA?9?$AAi?$AAn?$AA?$AA@ 0000000180019808     libucrt:lcidtoname_downlevel.obj
 0002:00004818       ??_C@_1M@GNAECACD@?$AAt?$AAh?$AA?9?$AAt?$AAh?$AA?$AA@ 0000000180019818     libucrt:lcidtoname_downlevel.obj
 0002:00004828       ??_C@_1M@CHBIHOJO@?$AAt?$AAn?$AA?9?$AAz?$AAa?$AA?$AA@ 0000000180019828     libucrt:lcidtoname_downlevel.obj
 0002:00004838       ??_C@_1M@GCCMIGPJ@?$AAt?$AAr?$AA?9?$AAt?$AAr?$AA?$AA@ 0000000180019838     libucrt:lcidtoname_downlevel.obj
 0002:00004848       ??_C@_1M@CELMCNBK@?$AAt?$AAt?$AA?9?$AAr?$AAu?$AA?$AA@ 0000000180019848     libucrt:lcidtoname_downlevel.obj
 0002:00004858       ??_C@_1M@KLMCELGA@?$AAu?$AAk?$AA?9?$AAu?$AAa?$AA?$AA@ 0000000180019858     libucrt:lcidtoname_downlevel.obj
 0002:00004868       ??_C@_1M@EPAJJAJF@?$AAu?$AAr?$AA?9?$AAp?$AAk?$AA?$AA@ 0000000180019868     libucrt:lcidtoname_downlevel.obj
 0002:00004878       ??_C@_1BG@GEGPMCDJ@?$AAu?$AAz?$AA?9?$AAu?$AAz?$AA?9?$AAc?$AAy?$AAr?$AAl?$AA?$AA@ 0000000180019878     libucrt:lcidtoname_downlevel.obj
 0002:00004890       ??_C@_1BG@EGGKJILM@?$AAu?$AAz?$AA?9?$AAu?$AAz?$AA?9?$AAl?$AAa?$AAt?$AAn?$AA?$AA@ 0000000180019890     libucrt:lcidtoname_downlevel.obj
 0002:000048a8       ??_C@_1M@GFOCLFF@?$AAv?$AAi?$AA?9?$AAv?$AAn?$AA?$AA@ 00000001800198a8     libucrt:lcidtoname_downlevel.obj
 0002:000048b8       ??_C@_1M@CPAMEDFI@?$AAx?$AAh?$AA?9?$AAz?$AAa?$AA?$AA@ 00000001800198b8     libucrt:lcidtoname_downlevel.obj
 0002:000048c8       ??_C@_1O@EBKIFIGN@?$AAz?$AAh?$AA?9?$AAc?$AAh?$AAs?$AA?$AA@ 00000001800198c8     libucrt:lcidtoname_downlevel.obj
 0002:000048d8       ??_C@_1O@NMHPGANE@?$AAz?$AAh?$AA?9?$AAc?$AAh?$AAt?$AA?$AA@ 00000001800198d8     libucrt:lcidtoname_downlevel.obj
 0002:000048e8       ??_C@_1M@LPINJOMC@?$AAz?$AAh?$AA?9?$AAc?$AAn?$AA?$AA@ 00000001800198e8     libucrt:lcidtoname_downlevel.obj
 0002:000048f8       ??_C@_1M@OCJEJODD@?$AAz?$AAh?$AA?9?$AAh?$AAk?$AA?$AA@ 00000001800198f8     libucrt:lcidtoname_downlevel.obj
 0002:00004908       ??_C@_1M@DNDLJINH@?$AAz?$AAh?$AA?9?$AAm?$AAo?$AA?$AA@ 0000000180019908     libucrt:lcidtoname_downlevel.obj
 0002:00004918       ??_C@_1M@MBFDNDND@?$AAz?$AAh?$AA?9?$AAs?$AAg?$AA?$AA@ 0000000180019918     libucrt:lcidtoname_downlevel.obj
 0002:00004928       ??_C@_1M@IMEPLEPE@?$AAz?$AAh?$AA?9?$AAt?$AAw?$AA?$AA@ 0000000180019928     libucrt:lcidtoname_downlevel.obj
 0002:00004938       ??_C@_1M@BBGHNHJP@?$AAz?$AAu?$AA?9?$AAz?$AAa?$AA?$AA@ 0000000180019938     libucrt:lcidtoname_downlevel.obj
 0002:00005790       ??_C@_15EMKDOKLE@?$AAa?$AAr?$AA?$AA@ 000000018001a790     libucrt:lcidtoname_downlevel.obj
 0002:00005798       ??_C@_15KNPADPLH@?$AAb?$AAg?$AA?$AA@ 000000018001a798     libucrt:lcidtoname_downlevel.obj
 0002:000057a0       ??_C@_15EDMHLDMO@?$AAc?$AAa?$AA?$AA@ 000000018001a7a0     libucrt:lcidtoname_downlevel.obj
 0002:000057a8       ??_C@_1O@BPEAJADD@?$AAz?$AAh?$AA?9?$AAC?$AAH?$AAS?$AA?$AA@ 000000018001a7a8     libucrt:lcidtoname_downlevel.obj
 0002:000057b8       ??_C@_15LJNHCMNK@?$AAc?$AAs?$AA?$AA@ 000000018001a7b8     libucrt:lcidtoname_downlevel.obj
 0002:000057c0       ??_C@_15FOMCIDHG@?$AAd?$AAa?$AA?$AA@ 000000018001a7c0     libucrt:lcidtoname_downlevel.obj
 0002:000057c8       ??_C@_15NBKABECB@?$AAd?$AAe?$AA?$AA@ 000000018001a7c8     libucrt:lcidtoname_downlevel.obj
 0002:000057d0       ??_C@_15GHPEIIAO@?$AAe?$AAl?$AA?$AA@ 000000018001a7d0     libucrt:lcidtoname_downlevel.obj
 0002:000057d8       ??_C@_15MNPNEAIF@?$AAe?$AAn?$AA?$AA@ 000000018001a7d8     libucrt:lcidtoname_downlevel.obj
 0002:000057e0       ??_C@_15GPIOMPMH@?$AAe?$AAs?$AA?$AA@ 000000018001a7e0     libucrt:lcidtoname_downlevel.obj
 0002:000057e8       ??_C@_15NGLOAKJC@?$AAf?$AAi?$AA?$AA@ 000000018001a7e8     libucrt:lcidtoname_downlevel.obj
 0002:000057f0       ??_C@_15FBKGNKAM@?$AAf?$AAr?$AA?$AA@ 000000018001a7f0     libucrt:lcidtoname_downlevel.obj
 0002:000057f8       ??_C@_15KGGCNEFK@?$AAh?$AAe?$AA?$AA@ 000000018001a7f8     libucrt:lcidtoname_downlevel.obj
 0002:00005800       ??_C@_15PGHLIDMF@?$AAh?$AAu?$AA?$AA@ 000000018001a800     libucrt:lcidtoname_downlevel.obj
 0002:00005808       ??_C@_15BIEMAPLM@?$AAi?$AAs?$AA?$AA@ 000000018001a808     libucrt:lcidtoname_downlevel.obj
 0002:00005810       ??_C@_15IFJLDHAF@?$AAi?$AAt?$AA?$AA@ 000000018001a810     libucrt:lcidtoname_downlevel.obj
 0002:00005818       ??_C@_15GEMIOCAG@?$AAj?$AAa?$AA?$AA@ 000000018001a818     libucrt:lcidtoname_downlevel.obj
 0002:00005820       ??_C@_15EPELEGJA@?$AAk?$AAo?$AA?$AA@ 000000018001a820     libucrt:lcidtoname_downlevel.obj
 0002:00005828       ??_C@_15NDDHIMN@?$AAn?$AAl?$AA?$AA@ 000000018001a828     libucrt:lcidtoname_downlevel.obj
 0002:00005830       ??_C@_15BPIGNHCD@?$AAn?$AAo?$AA?$AA@ 000000018001a830     libucrt:lcidtoname_downlevel.obj
 0002:00005838       ??_C@_15DEOPBLCG@?$AAp?$AAl?$AA?$AA@ 000000018001a838     libucrt:lcidtoname_downlevel.obj
 0002:00005840       ??_C@_15KBECGEFG@?$AAp?$AAt?$AA?$AA@ 000000018001a840     libucrt:lcidtoname_downlevel.obj
 0002:00005848       ??_C@_15GLJCBFMD@?$AAr?$AAo?$AA?$AA@ 000000018001a848     libucrt:lcidtoname_downlevel.obj
 0002:00005850       ??_C@_15FEDGKCDI@?$AAr?$AAu?$AA?$AA@ 000000018001a850     libucrt:lcidtoname_downlevel.obj
 0002:00005858       ??_C@_15GLKMLLHM@?$AAh?$AAr?$AA?$AA@ 000000018001a858     libucrt:lcidtoname_downlevel.obj
 0002:00005860       ??_C@_15CPKMFBDB@?$AAs?$AAk?$AA?$AA@ 000000018001a860     libucrt:lcidtoname_downlevel.obj
 0002:00005868       ??_C@_15BAAIOGMK@?$AAs?$AAq?$AA?$AA@ 000000018001a868     libucrt:lcidtoname_downlevel.obj
 0002:00005870       ??_C@_15INNPNOHD@?$AAs?$AAv?$AA?$AA@ 000000018001a870     libucrt:lcidtoname_downlevel.obj
 0002:00005878       ??_C@_15CABMMOGH@?$AAt?$AAh?$AA?$AA@ 000000018001a878     libucrt:lcidtoname_downlevel.obj
 0002:00005880       ??_C@_15BPLIHJJM@?$AAt?$AAr?$AA?$AA@ 000000018001a880     libucrt:lcidtoname_downlevel.obj
 0002:00005888       ??_C@_15NEOEKKDJ@?$AAu?$AAr?$AA?$AA@ 000000018001a888     libucrt:lcidtoname_downlevel.obj
 0002:00005890       ??_C@_15NFICGAJK@?$AAi?$AAd?$AA?$AA@ 000000018001a890     libucrt:lcidtoname_downlevel.obj
 0002:00005898       ??_C@_15HPJPHDM@?$AAb?$AAe?$AA?$AA@ 000000018001a898     libucrt:lcidtoname_downlevel.obj
 0002:000058a0       ??_C@_15LCHLGJII@?$AAs?$AAl?$AA?$AA@ 000000018001a8a0     libucrt:lcidtoname_downlevel.obj
 0002:000058a8       ??_C@_15PCFJPHHO@?$AAe?$AAt?$AA?$AA@ 000000018001a8a8     libucrt:lcidtoname_downlevel.obj
 0002:000058b0       ??_C@_15HPFPGODN@?$AAl?$AAv?$AA?$AA@ 000000018001a8b0     libucrt:lcidtoname_downlevel.obj
 0002:000058b8       ??_C@_15NFFGKGLG@?$AAl?$AAt?$AA?$AA@ 000000018001a8b8     libucrt:lcidtoname_downlevel.obj
 0002:000058c0       ??_C@_15BDAKCCHN@?$AAf?$AAa?$AA?$AA@ 000000018001a8c0     libucrt:lcidtoname_downlevel.obj
 0002:000058c8       ??_C@_15NFGIAIAJ@?$AAv?$AAi?$AA?$AA@ 000000018001a8c8     libucrt:lcidtoname_downlevel.obj
 0002:000058d0       ??_C@_15LMKNDMHN@?$AAh?$AAy?$AA?$AA@ 000000018001a8d0     libucrt:lcidtoname_downlevel.obj
 0002:000058d8       ??_C@_15IJBHMCFL@?$AAa?$AAz?$AA?$AA@ 000000018001a8d8     libucrt:lcidtoname_downlevel.obj
 0002:000058e0       ??_C@_15EKOFJABL@?$AAe?$AAu?$AA?$AA@ 000000018001a8e0     libucrt:lcidtoname_downlevel.obj
 0002:000058e8       ??_C@_15BGHADCNK@?$AAm?$AAk?$AA?$AA@ 000000018001a8e8     libucrt:lcidtoname_downlevel.obj
 0002:000058f0       ??_C@_15JDNICKHM@?$AAa?$AAf?$AA?$AA@ 000000018001a8f0     libucrt:lcidtoname_downlevel.obj
 0002:000058f8       ??_C@_15KPJEDBKD@?$AAk?$AAa?$AA?$AA@ 000000018001a8f8     libucrt:lcidtoname_downlevel.obj
 0002:00005900       ??_C@_15PDNFFFEO@?$AAf?$AAo?$AA?$AA@ 000000018001a900     libucrt:lcidtoname_downlevel.obj
 0002:00005908       ??_C@_15OMLEGLOC@?$AAh?$AAi?$AA?$AA@ 000000018001a908     libucrt:lcidtoname_downlevel.obj
 0002:00005910       ??_C@_15IDNNENKK@?$AAm?$AAs?$AA?$AA@ 000000018001a910     libucrt:lcidtoname_downlevel.obj
 0002:00005918       ??_C@_15MACJNBMH@?$AAk?$AAk?$AA?$AA@ 000000018001a918     libucrt:lcidtoname_downlevel.obj
 0002:00005920       ??_C@_15DKDJEOND@?$AAk?$AAy?$AA?$AA@ 000000018001a920     libucrt:lcidtoname_downlevel.obj
 0002:00005928       ??_C@_15DFGDLJBG@?$AAs?$AAw?$AA?$AA@ 000000018001a928     libucrt:lcidtoname_downlevel.obj
 0002:00005930       ??_C@_15BBFAICNG@?$AAu?$AAz?$AA?$AA@ 000000018001a930     libucrt:lcidtoname_downlevel.obj
 0002:00005938       ??_C@_15DKNDCGEA@?$AAt?$AAt?$AA?$AA@ 000000018001a938     libucrt:lcidtoname_downlevel.obj
 0002:00005940       ??_C@_15MGIFMDPL@?$AAp?$AAa?$AA?$AA@ 000000018001a940     libucrt:lcidtoname_downlevel.obj
 0002:00005948       ??_C@_15HCNDBBA@?$AAg?$AAu?$AA?$AA@ 000000018001a948     libucrt:lcidtoname_downlevel.obj
 0002:00005950       ??_C@_15FNBEIBON@?$AAt?$AAa?$AA?$AA@ 000000018001a950     libucrt:lcidtoname_downlevel.obj
 0002:00005958       ??_C@_15NCHGBGLK@?$AAt?$AAe?$AA?$AA@ 000000018001a958     libucrt:lcidtoname_downlevel.obj
 0002:00005960       ??_C@_15PHPHCBPF@?$AAk?$AAn?$AA?$AA@ 000000018001a960     libucrt:lcidtoname_downlevel.obj
 0002:00005968       ??_C@_15DLGBCKMP@?$AAm?$AAr?$AA?$AA@ 000000018001a968     libucrt:lcidtoname_downlevel.obj
 0002:00005970       ??_C@_15EABBLBFF@?$AAs?$AAa?$AA?$AA@ 000000018001a970     libucrt:lcidtoname_downlevel.obj
 0002:00005978       ??_C@_15CBKOMCOI@?$AAm?$AAn?$AA?$AA@ 000000018001a978     libucrt:lcidtoname_downlevel.obj
 0002:00005980       ??_C@_15CKDMCJAF@?$AAg?$AAl?$AA?$AA@ 000000018001a980     libucrt:lcidtoname_downlevel.obj
 0002:00005988       ??_C@_17CNJFBPG@?$AAk?$AAo?$AAk?$AA?$AA@ 000000018001a988     libucrt:lcidtoname_downlevel.obj
 0002:00005990       ??_C@_17FFBJICPL@?$AAs?$AAy?$AAr?$AA?$AA@ 000000018001a990     libucrt:lcidtoname_downlevel.obj
 0002:00005998       ??_C@_17KPNDCPAF@?$AAd?$AAi?$AAv?$AA?$AA@ 000000018001a998     libucrt:lcidtoname_downlevel.obj
 0002:000059a0       ??_C@_11LOCGONAA@?$AA?$AA@ 000000018001a9a0     libucrt:lcidtoname_downlevel.obj
 0002:000059a8       ??_C@_1M@OKAHONE@?$AAa?$AAr?$AA?9?$AAS?$AAA?$AA?$AA@ 000000018001a9a8     libucrt:lcidtoname_downlevel.obj
 0002:000059b8       ??_C@_1M@FFFIGIGK@?$AAb?$AAg?$AA?9?$AAB?$AAG?$AA?$AA@ 000000018001a9b8     libucrt:lcidtoname_downlevel.obj
 0002:00005c20       ??_C@_1BA@BALFACEM@?$AAC?$AAO?$AAN?$AAO?$AAU?$AAT?$AA$?$AA?$AA@ 000000018001ac20     libucrt:initcon.obj
 0002:00005c30       __log10_256_lead           000000018001ac30     libucrt:log10_256_lead_tail_table.obj
 0002:00006440       __log10_256_tail           000000018001b440     libucrt:log10_256_lead_tail_table.obj
 0002:00006c50       __log_F_inv_qword          000000018001bc50     libucrt:log_f_inv_qword_table.obj
 0002:00007460       ??_C@_05HGHHAHAP@log10?$AA@ 000000018001c460     libucrt:log_special.obj
 0002:00007480       ??_C@_1BK@DBDEIDLH@?$AAK?$AAE?$AAR?$AAN?$AAE?$AAL?$AA3?$AA2?$AA?4?$AAD?$AAL?$AAL@ 000000018001c480     DelayImp:delayhlp.obj
 0002:000074a0       ??_C@_0BI@OMNLIJDB@AcquireSRWLockExclusive@ 000000018001c4a0     DelayImp:delayhlp.obj
 0002:000074b8       ??_C@_0BI@HMIEPCNJ@ReleaseSRWLockExclusive@ 000000018001c4b8     DelayImp:delayhlp.obj
 0002:000074d0       __pfnDliFailureHook2       000000018001c4d0     DelayImp:delayhk1.obj
 0002:000074e0       _load_config_used          000000018001c4e0     LIBCMT:loadcfg.obj
 0002:000075e0       ??_C@_00CNPNBAHC@@         000000018001c5e0     memoryjs.obj
 0002:000075f0       ??_C@_0EA@PDHELIGJ@requires?51?5argument?0?5or?52?5argum@ 000000018001c5f0     memoryjs.obj
 0002:00007630       ??_C@_0CM@HGGHHEEI@first?5argument?5must?5be?5a?5string@ 000000018001c630     memoryjs.obj
 0002:00007660       ??_C@_0CD@MMNPHDIN@second?5argument?5must?5be?5a?5funct@ 000000018001c660     memoryjs.obj
 0002:00007684       ??_C@_06HDDMAKPI@dwSize@   000000018001c684     memoryjs.obj
 0002:00007690       ??_C@_0O@DKINBLMC@th32ProcessID@ 000000018001c690     memoryjs.obj
 0002:000076a0       ??_C@_0L@IJHEGKNG@cntThreads@ 000000018001c6a0     memoryjs.obj
 0002:000076b0       ??_C@_0BE@GDBHDJLD@th32ParentProcessID@ 000000018001c6b0     memoryjs.obj
 0002:000076c8       ??_C@_0P@FIJHAFKK@pcPriClassBase@ 000000018001c6c8     memoryjs.obj
 0002:000076d8       ??_C@_09EKJPJELD@szExeFile@ 000000018001c6d8     memoryjs.obj
 0002:000076e4       ??_C@_06NCGDPKCC@handle@   000000018001c6e4     memoryjs.obj
 0002:000076f0       ??_C@_0M@MDGLCEFM@modBaseAddr@ 000000018001c6f0     memoryjs.obj
 0002:00007700       ??_C@_0BE@DJPLAIIO@requires?51?5argument@ 000000018001c700     memoryjs.obj
 0002:00007718       ??_C@_0CA@OPHEMBL@first?5argument?5must?5be?5a?5number@ 000000018001c718     memoryjs.obj
 0002:00007740       ??_C@_0EG@FIFPAJAH@requires?5either?50?5arguments?5or?5@ 000000018001c740     memoryjs.obj
 0002:00007788       ??_C@_0CC@PFFNAHGO@first?5argument?5must?5be?5a?5functi@ 000000018001c788     memoryjs.obj
 0002:000077b0       ??_C@_0EE@CNGGMFAA@first?5argument?5must?5be?5a?5number@ 000000018001c7b0     memoryjs.obj
 0002:000077f8       ??_C@_0M@DIBKDCIP@modBaseSize@ 000000018001c7f8     memoryjs.obj
 0002:00007808       ??_C@_09MHBAFCPL@szExePath@ 000000018001c808     memoryjs.obj
 0002:00007818       ??_C@_08FICCBMKK@szModule@ 000000018001c818     memoryjs.obj
 0002:00007828       ??_C@_0N@MAHCMJHB@th32ModuleID@ 000000018001c828     memoryjs.obj
 0002:00007840       ??_C@_0EN@FPMGOMDP@requires?51?5argument?0?52?5argument@ 000000018001c840     memoryjs.obj
 0002:00007890       ??_C@_0EC@OKODLAHH@first?5argument?5must?5be?5a?5string@ 000000018001c890     memoryjs.obj
 0002:000078d8       ??_C@_0CC@OGEEKKID@third?5argument?5must?5be?5a?5functi@ 000000018001c8d8     memoryjs.obj
 0002:00007900       ??_C@_07CMLJBOCL@hModule@  000000018001c900     memoryjs.obj
 0002:00007910       ??_C@_0EB@GLKHBGL@requires?53?5arguments?0?5or?54?5argu@ 000000018001c910     memoryjs.obj
 0002:00007960       ??_C@_0EM@NLIDIAAL@first?5and?5second?5argument?5must?5@ 000000018001c960     memoryjs.obj
 0002:000079b0       ??_C@_0CD@COMEPCIP@fourth?5argument?5must?5be?5a?5funct@ 000000018001c9b0     memoryjs.obj
 0002:000079d4       ??_C@_04IHGKJMLH@byte@     000000018001c9d4     memoryjs.obj
 0002:000079dc       ??_C@_03JBIPMCLC@int@      000000018001c9dc     memoryjs.obj
 0002:000079e0       ??_C@_05GIMEPBJB@int32@    000000018001c9e0     memoryjs.obj
 0002:000079e8       ??_C@_06PKDKHAMA@uint32@   000000018001c9e8     memoryjs.obj
 0002:000079f0       ??_C@_05DIFFJEPM@int64@    000000018001c9f0     memoryjs.obj
 0002:000079f8       ??_C@_06KKKLBFKN@uint64@   000000018001c9f8     memoryjs.obj
 0002:00007a00       ??_C@_05KDALNKAH@dword@    000000018001ca00     memoryjs.obj
 0002:00007a08       ??_C@_05BFKKPKCG@short@    000000018001ca08     memoryjs.obj
 0002:00007a10       ??_C@_04GOKPGOLB@long@     000000018001ca10     memoryjs.obj
 0002:00007a18       ??_C@_05KNFBNCOH@float@    000000018001ca18     memoryjs.obj
 0002:00007a20       ??_C@_06BNJCAIGJ@double@   000000018001ca20     memoryjs.obj
 0002:00007a28       ??_C@_03PLHFFLIH@ptr@      000000018001ca28     memoryjs.obj
 0002:00007a30       ??_C@_07PFMCDPMA@pointer@  000000018001ca30     memoryjs.obj
 0002:00007a38       ??_C@_04DDKJGDCM@bool@     000000018001ca38     memoryjs.obj
 0002:00007a40       ??_C@_07GOBOHMJA@boolean@  000000018001ca40     memoryjs.obj
 0002:00007a48       ??_C@_06ICGJLFIM@string@   000000018001ca48     memoryjs.obj
 0002:00007a50       ??_C@_03OJMAPEGJ@str@      000000018001ca50     memoryjs.obj
 0002:00007a60       ??_C@_0EH@PAPNGPOC@unable?5to?5read?5string?5?$CIno?5null?9@ 000000018001ca60     memoryjs.obj
 0002:00007aa8       ??_C@_07GLAFNOGD@vector3@  000000018001caa8     memoryjs.obj
 0002:00007ab0       ??_C@_04PNENAKPF@vec3@     000000018001cab0     memoryjs.obj
 0002:00007ab8       ??_C@_01FJMABOPO@x@        000000018001cab8     memoryjs.obj
 0002:00007abc       ??_C@_01EANLCPLP@y@        000000018001cabc     memoryjs.obj
 0002:00007ac0       ??_C@_01GLPGHMHM@z@        000000018001cac0     memoryjs.obj
 0002:00007ac8       ??_C@_07CEEEEIKE@vector4@  000000018001cac8     memoryjs.obj
 0002:00007ad0       ??_C@_04LCAMJMDC@vec4@     000000018001cad0     memoryjs.obj
 0002:00007ad8       ??_C@_01NOFIACDB@w@        000000018001cad8     memoryjs.obj
 0002:00007ae0       ??_C@_0BF@FIJDNPKM@unexpected?5data?5type@ 000000018001cae0     memoryjs.obj
 0002:00007af8       ??_C@_0DD@OOEPOHAF@first?0?5second?5and?5third?5argumen@ 000000018001caf8     memoryjs.obj
 0002:00007b30       ??_C@_0BF@JGIIAIAK@requires?54?5arguments@ 000000018001cb30     memoryjs.obj
 0002:00007b48       ??_C@_0BF@OBGPHHCJ@required?53?5arguments@ 000000018001cb48     memoryjs.obj
 0002:00007b60       ??_C@_0CL@BOEKINJC@first?5and?5second?5argument?5must?5@ 000000018001cb60     memoryjs.obj
 0002:00007b90       ??_C@_0BG@DNGDJEJC@unable?5to?5find?5module@ 000000018001cb90     memoryjs.obj
 0002:00007ba8       ??_C@_0P@EFPIPLFH@no?5match?5found@ 000000018001cba8     memoryjs.obj
 0002:00007bb8       ??_C@_0CB@IFCBDMJP@All?5arguments?5should?5be?5numbers@ 000000018001cbb8     memoryjs.obj
 0002:00007be0       ??_C@_0CG@NDBHDBAG@requires?54?5arguments?0?55?5with?5ca@ 000000018001cbe0     memoryjs.obj
 0002:00007c08       ??_C@_0BC@KNPMEBHA@invalid?5arguments@ 000000018001cc08     memoryjs.obj
 0002:00007c1c       ??_C@_04GPMDFGEJ@type@     000000018001cc1c     memoryjs.obj
 0002:00007c24       ??_C@_05MFEJDJP@value@     000000018001cc24     memoryjs.obj
 0002:00007c30       ??_C@_0M@FIHHNGFJ@returnValue@ 000000018001cc30     memoryjs.obj
 0002:00007c40       ??_C@_08NFGINKKM@exitCode@ 000000018001cc40     memoryjs.obj
 0002:00007c50       ??_C@_0CG@JJNIFMNA@requires?55?5arguments?0?56?5with?5ca@ 000000018001cc50     memoryjs.obj
 0002:00007c78       ??_C@_0DO@EHJNPLHC@invalid?5arguments?3?5arguments?50?0@ 000000018001cc78     memoryjs.obj
 0002:00007cb8       ??_C@_0CA@GEFMMDOK@callback?5needs?5to?5be?5a?5function@ 000000018001ccb8     memoryjs.obj
 0002:00007cd8       ??_C@_0CJ@LIHHIFDF@an?5error?5occurred?5calling?5Virtu@ 000000018001ccd8     memoryjs.obj
 0002:00007d08       ??_C@_0M@NEBNHEMD@openProcess@ 000000018001cd08     memoryjs.obj
 0002:00007d18       ??_C@_0N@PBPAMPDB@closeProcess@ 000000018001cd18     memoryjs.obj
 0002:00007d28       ??_C@_0N@HMBKPOBM@getProcesses@ 000000018001cd28     memoryjs.obj
 0002:00007d38       ??_C@_0L@CBNJDCMD@getModules@ 000000018001cd38     memoryjs.obj
 0002:00007d48       ??_C@_0L@HEIBEMBG@findModule@ 000000018001cd48     memoryjs.obj
 0002:00007d58       ??_C@_0L@MMMLPBML@readMemory@ 000000018001cd58     memoryjs.obj
 0002:00007d68       ??_C@_0L@MJBAJBBM@readBuffer@ 000000018001cd68     memoryjs.obj
 0002:00007d78       ??_C@_0M@LMIKAJBN@writeMemory@ 000000018001cd78     memoryjs.obj
 0002:00007d88       ??_C@_0M@LJFBGJMK@writeBuffer@ 000000018001cd88     memoryjs.obj
 0002:00007d98       ??_C@_0M@OCIIPMMH@findPattern@ 000000018001cd98     memoryjs.obj
 0002:00007da8       ??_C@_0O@IHPLAPK@setProtection@ 000000018001cda8     memoryjs.obj
 0002:00007db8       ??_C@_0N@IPAIFEAM@callFunction@ 000000018001cdb8     memoryjs.obj
 0002:00007dc8       ??_C@_0P@KNLDDNED@virtualAllocEx@ 000000018001cdc8     memoryjs.obj
 0002:00007de0       ??_C@_0GM@KECFJAJA@c?3?2users?2apple?2documents?2__cowb@ 000000018001cde0     memoryjs.obj
 0002:00007e50       ??_C@_08OLGFILKN@memoryjs@ 000000018001ce50     memoryjs.obj
 0002:00007e60       ??_C@_0BD@OLBABOEK@vector?$DMT?$DO?5too?5long@ 000000018001ce60     memoryjs.obj
 0002:00007e78       ??_C@_0CA@PIEJLBNP@Unable?5to?5create?5remote?5thread?4@ 000000018001ce78     memoryjs.obj
 0002:00007e98       ??_C@_0BA@JFNIOLAK@string?5too?5long@ 000000018001ce98     memoryjs.obj
 0002:00007ea8       ??_C@_0BM@NMJKDPPO@invalid?5vector?$DMT?$DO?5subscript@ 000000018001cea8     memoryjs.obj
 0002:00007ec8       ??_C@_0BH@BLFNGAJE@unable?5to?5find?5process@ 000000018001cec8     process.obj
 0002:00007ee0       ??_C@_0CO@LEEBOAPE@method?5failed?5to?5take?5snapshot?5@ 000000018001cee0     process.obj
 0002:00007f10       ??_C@_0CM@NCNDHAAF@method?5failed?5to?5retrieve?5the?5f@ 000000018001cf10     process.obj
 0002:00007f40       ??_C@_0CL@LPFDIDOB@method?5failed?5to?5retrieve?5the?5f@ 000000018001cf40     module.obj
 0002:00007f70       ??_C@_08HCOMDCCD@iojs?4exe@ 000000018001cf70     win_delay_load_hook.obj
 0002:00007f80       ??_C@_08JDDNMFDB@node?4exe@ 000000018001cf80     win_delay_load_hook.obj
 0002:00007f90       __pfnDliNotifyHook2        000000018001cf90     win_delay_load_hook.obj
 0002:00007f98       __real@43e0000000000000    000000018001cf98     memoryjs.obj
 0002:00007fa0       __real@43f0000000000000    000000018001cfa0     memoryjs.obj
 0002:00007fb0       __xmm@000000000000000f0000000000000000 000000018001cfb0     memoryjs.obj
 0002:00008030       ??_R4exception@std@@6B@    000000018001d030     libcpmt:xthrow.obj
 0002:00008058       ??_R3exception@std@@8      000000018001d058     libcpmt:xthrow.obj
 0002:00008070       ??_R2exception@std@@8      000000018001d070     libcpmt:xthrow.obj
 0002:00008080       ??_R1A@?0A@EA@exception@std@@8 000000018001d080     libcpmt:xthrow.obj
 0002:000080a8       ??_R4bad_alloc@std@@6B@    000000018001d0a8     libcpmt:xthrow.obj
 0002:000080d0       ??_R3bad_alloc@std@@8      000000018001d0d0     libcpmt:xthrow.obj
 0002:000080e8       ??_R2bad_alloc@std@@8      000000018001d0e8     libcpmt:xthrow.obj
 0002:00008100       ??_R1A@?0A@EA@bad_alloc@std@@8 000000018001d100     libcpmt:xthrow.obj
 0002:00008128       ??_R4logic_error@std@@6B@  000000018001d128     libcpmt:xthrow.obj
 0002:00008150       ??_R3logic_error@std@@8    000000018001d150     libcpmt:xthrow.obj
 0002:00008168       ??_R2logic_error@std@@8    000000018001d168     libcpmt:xthrow.obj
 0002:00008180       ??_R1A@?0A@EA@logic_error@std@@8 000000018001d180     libcpmt:xthrow.obj
 0002:000081a8       ??_R4length_error@std@@6B@ 000000018001d1a8     libcpmt:xthrow.obj
 0002:000081d0       ??_R3length_error@std@@8   000000018001d1d0     libcpmt:xthrow.obj
 0002:000081e8       ??_R2length_error@std@@8   000000018001d1e8     libcpmt:xthrow.obj
 0002:00008208       ??_R1A@?0A@EA@length_error@std@@8 000000018001d208     libcpmt:xthrow.obj
 0002:00008230       ??_R4out_of_range@std@@6B@ 000000018001d230     libcpmt:xthrow.obj
 0002:00008258       ??_R3out_of_range@std@@8   000000018001d258     libcpmt:xthrow.obj
 0002:00008270       ??_R2out_of_range@std@@8   000000018001d270     libcpmt:xthrow.obj
 0002:00008290       ??_R1A@?0A@EA@out_of_range@std@@8 000000018001d290     libcpmt:xthrow.obj
 0002:000082b8       ??_R4type_info@@6B@        000000018001d2b8     LIBCMT:std_type_info_static.obj
 0002:000082e0       ??_R3type_info@@8          000000018001d2e0     LIBCMT:std_type_info_static.obj
 0002:000082f8       ??_R2type_info@@8          000000018001d2f8     LIBCMT:std_type_info_static.obj
 0002:00008308       ??_R1A@?0A@EA@type_info@@8 000000018001d308     LIBCMT:std_type_info_static.obj
 0002:00008330       ??_R4bad_array_new_length@std@@6B@ 000000018001d330     LIBCMT:throw_bad_alloc.obj
 0002:00008358       ??_R3bad_array_new_length@std@@8 000000018001d358     LIBCMT:throw_bad_alloc.obj
 0002:00008370       ??_R2bad_array_new_length@std@@8 000000018001d370     LIBCMT:throw_bad_alloc.obj
 0002:00008390       ??_R1A@?0A@EA@bad_array_new_length@std@@8 000000018001d390     LIBCMT:throw_bad_alloc.obj
 0002:000087c0       __rtc_iaa                  000000018001d7c0     LIBCMT:initsect.obj
 0002:000087c8       __rtc_izz                  000000018001d7c8     LIBCMT:initsect.obj
 0002:000087d0       __rtc_taa                  000000018001d7d0     LIBCMT:initsect.obj
 0002:000087d8       __rtc_tzz                  000000018001d7d8     LIBCMT:initsect.obj
 0002:00009c60       _TI2?AVbad_alloc@std@@     000000018001ec60     libcpmt:xthrow.obj
 0002:00009c80       _CTA2?AVbad_alloc@std@@    000000018001ec80     libcpmt:xthrow.obj
 0002:00009c98       _CT??_R0?AVbad_alloc@std@@@8??0bad_alloc@std@@QEAA@AEBV01@@Z24 000000018001ec98     libcpmt:xthrow.obj
 0002:00009cc0       _CT??_R0?AVexception@std@@@8??0exception@std@@QEAA@AEBV01@@Z24 000000018001ecc0     libcpmt:xthrow.obj
 0002:00009ce8       _CT??_R0?AVlogic_error@std@@@8??0logic_error@std@@QEAA@AEBV01@@Z24 000000018001ece8     libcpmt:xthrow.obj
 0002:00009d10       _TI3?AVlength_error@std@@  000000018001ed10     libcpmt:xthrow.obj
 0002:00009d30       _CTA3?AVlength_error@std@@ 000000018001ed30     libcpmt:xthrow.obj
 0002:00009d50       _CT??_R0?AVlength_error@std@@@8??0length_error@std@@QEAA@AEBV01@@Z24 000000018001ed50     libcpmt:xthrow.obj
 0002:00009d78       _TI3?AVout_of_range@std@@  000000018001ed78     libcpmt:xthrow.obj
 0002:00009d98       _CTA3?AVout_of_range@std@@ 000000018001ed98     libcpmt:xthrow.obj
 0002:00009db8       _CT??_R0?AVout_of_range@std@@@8??0out_of_range@std@@QEAA@AEBV01@@Z24 000000018001edb8     libcpmt:xthrow.obj
 0002:00009de0       _TI3?AVbad_array_new_length@std@@ 000000018001ede0     LIBCMT:throw_bad_alloc.obj
 0002:00009e00       _CTA3?AVbad_array_new_length@std@@ 000000018001ee00     LIBCMT:throw_bad_alloc.obj
 0002:00009e20       _CT??_R0?AVbad_array_new_length@std@@@8??0bad_array_new_length@std@@QEAA@AEBV01@@Z24 000000018001ee20     LIBCMT:throw_bad_alloc.obj
 0002:00009e44       __DELAY_IMPORT_DESCRIPTOR_node_exe 000000018001ee44     node:node.exe
 0002:00009e64       __NULL_DELAY_IMPORT_DESCRIPTOR 000000018001ee64     node:node.exe
 0002:00009fa8       \177node_NULL_THUNK_DATA_DLN 000000018001efa8     node:node.exe
 0002:0000a7c8       \177node_NULL_THUNK_DATA_DLB 000000018001f7c8     node:node.exe
 0002:0000a944       __IMPORT_DESCRIPTOR_KERNEL32 000000018001f944     kernel32:KERNEL32.dll
 0002:0000a958       __NULL_IMPORT_DESCRIPTOR   000000018001f958     kernel32:KERNEL32.dll
 0003:00000000       __scrt_native_dllmain_reason 0000000180021000     LIBCMT:utility.obj
 0003:00000008       __security_cookie_complement 0000000180021008     LIBCMT:gs_cookie.obj
 0003:00000010       __security_cookie          0000000180021010     LIBCMT:gs_cookie.obj
 0003:00000018       __isa_available            0000000180021018     LIBCMT:cpu_disp.obj
 0003:0000001c       __isa_enabled              000000018002101c     LIBCMT:cpu_disp.obj
 0003:00000020       __memcpy_nt_iters          0000000180021020     LIBCMT:cpu_disp.obj
 0003:00000040       __abort_behavior           0000000180021040     libucrt:abort.obj
 0003:00000050       _iob                       0000000180021050     libucrt:_file.obj
 0003:00000160       __badioinfo                0000000180021160     libucrt:ioinit.obj
 0003:000001b0       __acrt_initial_locale_data 00000001800211b0     libucrt:nlsdata.obj
 0003:00000308       __acrt_initial_locale_pointers 0000000180021308     libucrt:nlsdata.obj
 0003:00000318       __acrt_wide_c_locale_string 0000000180021318     libucrt:nlsdata.obj
 0003:00000320       __acrt_initial_multibyte_data 0000000180021320     libucrt:mbctype.obj
 0003:00000860       _lookuptrailbytes          0000000180021860     libucrt:read.obj
 0003:00000960       __globallocalestatus       0000000180021960     libucrt:glstatus.obj
 0003:00000970       __acrt_lconv_c             0000000180021970     libucrt:localeconv.obj
 0003:00000a08       __acrt_lconv_static_decimal 0000000180021a08     libucrt:localeconv.obj
 0003:00000a0c       __acrt_lconv_static_W_decimal 0000000180021a0c     libucrt:localeconv.obj
 0003:00000a30       _fltused                   0000000180021a30     LIBCMT:fltused.obj
 0003:00000a80       ??_R0?AVbad_alloc@std@@@8  0000000180021a80     libcpmt:xthrow.obj
 0003:00000aa8       ??_R0?AVexception@std@@@8  0000000180021aa8     libcpmt:xthrow.obj
 0003:00000ad0       ??_R0?AVlogic_error@std@@@8 0000000180021ad0     libcpmt:xthrow.obj
 0003:00000af8       ??_R0?AVlength_error@std@@@8 0000000180021af8     libcpmt:xthrow.obj
 0003:00000b20       ??_R0?AVout_of_range@std@@@8 0000000180021b20     libcpmt:xthrow.obj
 0003:00000b48       ??_R0?AVtype_info@@@8      0000000180021b48     LIBCMT:std_type_info_static.obj
 0003:00000b68       ??_R0?AVbad_array_new_length@std@@@8 0000000180021b68     LIBCMT:throw_bad_alloc.obj
 0003:00000b98       ??_R0PEAD@8                0000000180021b98     memoryjs.obj
 0003:00000bb0       __imp_?ThrowException@Isolate@v8@@QEAA?AV?$Local@VValue@v8@@@2@V32@@Z 0000000180021bb0     node:node.exe
 0003:00000bb8       __imp_?GetCurrentContext@Isolate@v8@@QEAA?AV?$Local@VContext@v8@@@2@XZ 0000000180021bb8     node:node.exe
 0003:00000bc0       __imp_?GetCurrent@Isolate@v8@@SAPEAV12@XZ 0000000180021bc0     node:node.exe
 0003:00000bc8       __imp_??1HandleScope@v8@@QEAA@XZ 0000000180021bc8     node:node.exe
 0003:00000bd0       __imp_??0HandleScope@v8@@QEAA@PEAVIsolate@1@@Z 0000000180021bd0     node:node.exe
 0003:00000bd8       __imp_?TypeError@Exception@v8@@SA?AV?$Local@VValue@v8@@@2@V?$Local@VString@v8@@@2@@Z 0000000180021bd8     node:node.exe
 0003:00000be0       __imp_?New@Array@v8@@SA?AV?$Local@VArray@v8@@@2@PEAVIsolate@2@H@Z 0000000180021be0     node:node.exe
 0003:00000be8       __imp_?Length@Array@v8@@QEBAIXZ 0000000180021be8     node:node.exe
 0003:00000bf0       __imp_?GetFunction@FunctionTemplate@v8@@QEAA?AV?$MaybeLocal@VFunction@v8@@@2@V?$Local@VContext@v8@@@2@@Z 0000000180021bf0     node:node.exe
 0003:00000bf8       __imp_?New@FunctionTemplate@v8@@SA?AV?$Local@VFunctionTemplate@v8@@@2@PEAVIsolate@2@P6AXAEBV?$FunctionCallbackInfo@VValue@v8@@@2@@ZV?$Local@VValue@v8@@@2@V?$Local@VSignature@v8@@@2@HW4ConstructorBehavior@2@W4SideEffectType@2@@Z 0000000180021bf8     node:node.exe
 0003:00000c00       __imp_?ToLocalEmpty@V8@v8@@CAXXZ 0000000180021c00     node:node.exe
 0003:00000c08       __imp_?Int32Value@Value@v8@@QEBAHXZ 0000000180021c08     node:node.exe
 0003:00000c10       __imp_?Uint32Value@Value@v8@@QEBAIXZ 0000000180021c10     node:node.exe
 0003:00000c18       __imp_?IntegerValue@Value@v8@@QEBA_JXZ 0000000180021c18     node:node.exe
 0003:00000c20       __imp_?NumberValue@Value@v8@@QEBANXZ 0000000180021c20     node:node.exe
 0003:00000c28       __imp_?BooleanValue@Value@v8@@QEBA_NXZ 0000000180021c28     node:node.exe
 0003:00000c30       __imp_?IsNumber@Value@v8@@QEBA_NXZ 0000000180021c30     node:node.exe
 0003:00000c38       __imp_?IsObject@Value@v8@@QEBA_NXZ 0000000180021c38     node:node.exe
 0003:00000c40       __imp_?IsFunction@Value@v8@@QEBA_NXZ 0000000180021c40     node:node.exe
 0003:00000c48       __imp_??1Utf8Value@String@v8@@QEAA@XZ 0000000180021c48     node:node.exe
 0003:00000c50       __imp_??0Utf8Value@String@v8@@QEAA@V?$Local@VValue@v8@@@2@@Z 0000000180021c50     node:node.exe
 0003:00000c58       __imp_?NewFromUtf8@String@v8@@SA?AV?$Local@VString@v8@@@2@PEAVIsolate@2@PEBDW4NewStringType@12@H@Z 0000000180021c58     node:node.exe
 0003:00000c60       __imp_?NewFromUtf8@String@v8@@SA?AV?$MaybeLocal@VString@v8@@@2@PEAVIsolate@2@PEBDW4NewStringType@2@H@Z 0000000180021c60     node:node.exe
 0003:00000c68       __imp_?New@Number@v8@@SA?AV?$Local@VNumber@v8@@@2@PEAVIsolate@2@N@Z 0000000180021c68     node:node.exe
 0003:00000c70       __imp_?New@Object@v8@@SA?AV?$Local@VObject@v8@@@2@PEAVIsolate@2@@Z 0000000180021c70     node:node.exe
 0003:00000c78       __imp_?Get@Object@v8@@QEAA?AV?$Local@VValue@v8@@@2@V32@@Z 0000000180021c78     node:node.exe
 0003:00000c80       __imp_?Get@Object@v8@@QEAA?AV?$Local@VValue@v8@@@2@I@Z 0000000180021c80     node:node.exe
 0003:00000c88       __imp_?Set@Object@v8@@QEAA_NV?$Local@VValue@v8@@@2@0@Z 0000000180021c88     node:node.exe
 0003:00000c90       __imp_?Set@Object@v8@@QEAA_NIV?$Local@VValue@v8@@@2@@Z 0000000180021c90     node:node.exe
 0003:00000c98       __imp_?SetName@Function@v8@@QEAAXV?$Local@VString@v8@@@2@@Z 0000000180021c98     node:node.exe
 0003:00000ca0       __imp_?Call@Function@v8@@QEAA?AV?$Local@VValue@v8@@@2@V32@HQEAV32@@Z 0000000180021ca0     node:node.exe
 0003:00000ca8       __imp_node_module_register 0000000180021ca8     node:node.exe
 0003:00000cb0       __imp_?New@Buffer@node@@YA?AV?$MaybeLocal@VObject@v8@@@v8@@PEAVIsolate@4@PEAD_K@Z 0000000180021cb0     node:node.exe
 0003:00000cb8       __imp_?Data@Buffer@node@@YAPEADV?$Local@VValue@v8@@@v8@@@Z 0000000180021cb8     node:node.exe
 0003:00000cc0       __imp_?Length@Buffer@node@@YA_KV?$Local@VValue@v8@@@v8@@@Z 0000000180021cc0     node:node.exe
 0003:00000cc8       __imp_?ToString@Value@v8@@QEBA?AV?$Local@VString@v8@@@2@XZ 0000000180021cc8     node:node.exe
 0003:00000cd0       \177node_NULL_THUNK_DATA_DLA 0000000180021cd0     node:node.exe
 0003:00000ce0       __hmod__node_exe           0000000180021ce0     node:node.exe
 0003:00000ce8       __scrt_current_native_startup_state 0000000180021ce8     LIBCMT:utility.obj
 0003:00000cf0       __scrt_native_startup_lock 0000000180021cf0     LIBCMT:utility.obj
 0003:000012b0       __favor                    00000001800222b0     LIBCMT:cpu_disp.obj
 0003:000012b4       __scrt_debugger_hook_flag  00000001800222b4     LIBCMT:utility_desktop.obj
 0003:000012c0       ?__type_info_root_node@@3U__type_info_node@@A 00000001800222c0     LIBCMT:tncleanup.obj
 0003:000012d0       ?_OptionsStorage@?1??__local_stdio_printf_options@@9@4_KA 00000001800222d0     LIBCMT:default_local_stdio_options.obj
 0003:000012d8       ?_OptionsStorage@?1??__local_stdio_scanf_options@@9@4_KA 00000001800222d8     LIBCMT:default_local_stdio_options.obj
 0003:000012e0       ?pArgList@UnDecorator@@0PEAVReplicator@@EA 00000001800222e0     libvcruntime:undname.obj
 0003:000012e8       ?pZNameList@UnDecorator@@0PEAVReplicator@@EA 00000001800222e8     libvcruntime:undname.obj
 0003:000012f0       ?pTemplateArgList@UnDecorator@@0PEAVReplicator@@EA 00000001800222f0     libvcruntime:undname.obj
 0003:000012f8       ?gName@UnDecorator@@0PEBDEB 00000001800222f8     libvcruntime:undname.obj
 0003:00001300       ?name@UnDecorator@@0PEBDEB 0000000180022300     libvcruntime:undname.obj
 0003:00001308       ?disableFlags@UnDecorator@@0KA 0000000180022308     libvcruntime:undname.obj
 0003:0000130c       ?fExplicitTemplateParams@UnDecorator@@0_NA 000000018002230c     libvcruntime:undname.obj
 0003:0000130d       ?fGetTemplateArgumentList@UnDecorator@@0_NA 000000018002230d     libvcruntime:undname.obj
 0003:00001310       ?m_pGetParameter@UnDecorator@@0P6APEADJ@ZEA 0000000180022310     libvcruntime:undname.obj
 0003:00001318       ?m_CHPENameOffset@UnDecorator@@0KA 0000000180022318     libvcruntime:undname.obj
 0003:0000131c       ?m_recursionLevel@UnDecorator@@0KA 000000018002231c     libvcruntime:undname.obj
 0003:00001450       __pPurecall                0000000180022450     libvcruntime:purevirt_data.obj
 0003:00001458       ?__WinRTOutOfMemoryExceptionCallback@@3P6APEAXXZEA 0000000180022458     libvcruntime:ehhelpers.obj
 0003:00001480       ?c_exit_complete@?1???R<lambda_6e4b09c48022b2350581041d5f6b0c4c>@@QEBA@XZ@4_NA 0000000180022480     libucrt:exit.obj
 0003:00001598       _environ_table             0000000180022598     libucrt:environment_initialization.obj
 0003:000015a0       _wenviron_table            00000001800225a0     libucrt:environment_initialization.obj
 0003:000015a8       __dcrt_initial_wide_environment 00000001800225a8     libucrt:environment_initialization.obj
 0003:000015b0       __dcrt_initial_narrow_environment 00000001800225b0     libucrt:environment_initialization.obj
 0003:000015b8       __acrt_atexit_table        00000001800225b8     libucrt:onexit.obj
 0003:000015d0       __acrt_at_quick_exit_table 00000001800225d0     libucrt:onexit.obj
 0003:000015e8       _nstream                   00000001800225e8     libucrt:_file.obj
 0003:000015f0       __piob                     00000001800225f0     libucrt:_file.obj
 0003:000015f8       _cflush                    00000001800225f8     libucrt:_file.obj
 0003:00001600       __pioinfo                  0000000180022600     libucrt:ioinit.obj
 0003:00001a00       _nhandle                   0000000180022a00     libucrt:ioinit.obj
 0003:00001a04       __acrt_locale_changed_data 0000000180022a04     libucrt:wsetlocale.obj
 0003:00001a08       __acrt_current_locale_data 0000000180022a08     libucrt:nlsdata.obj
 0003:00001c48       __acrt_current_multibyte_data 0000000180022c48     libucrt:mbctype.obj
 0003:00001c50       _mbctype                   0000000180022c50     libucrt:mbctype.obj
 0003:00001c58       _mbcasemap                 0000000180022c58     libucrt:mbctype.obj
 0003:00001c68       __argc                     0000000180022c68     libucrt:argv_data.obj
 0003:00001c70       __argv                     0000000180022c70     libucrt:argv_data.obj
 0003:00001c78       __wargv                    0000000180022c78     libucrt:argv_data.obj
 0003:00001c80       _acmdln                    0000000180022c80     libucrt:argv_data.obj
 0003:00001c88       _wcmdln                    0000000180022c88     libucrt:argv_data.obj
 0003:00001c90       _pgmptr                    0000000180022c90     libucrt:argv_data.obj
 0003:00001e50       __acrt_heap                0000000180022e50     libucrt:heap_handle.obj
 0003:00001e80       __acrt_stdout_buffer       0000000180022e80     libucrt:_sftbuf.obj
 0003:00001e88       __acrt_stderr_buffer       0000000180022e88     libucrt:_sftbuf.obj
 0003:00001e94       __acrt_lconv_static_null   0000000180022e94     libucrt:localeconv.obj
 0003:00001e98       __acrt_lconv_static_W_null 0000000180022e98     libucrt:localeconv.obj
 0003:00001ea0       __fma3_is_available        0000000180022ea0     libucrt:fma3_available.obj
 0003:00001ea4       __use_fma3_lib             0000000180022ea4     libucrt:fma3_available.obj
 0003:00001ea8       ?DloadKernel32@@3PEAUHINSTANCE__@@EA 0000000180022ea8     DelayImp:delayhlp.obj
 0003:00001eb0       ?DloadAcquireSRWLockExclusive@@3P6AXPEA_K@ZEA 0000000180022eb0     DelayImp:delayhlp.obj
 0003:00001eb8       ?DloadReleaseSRWLockExclusive@@3P6AXPEA_K@ZEA 0000000180022eb8     DelayImp:delayhlp.obj
 0003:00001ec0       ?DloadSrwLock@@3_KA        0000000180022ec0     DelayImp:delayhlp.obj
 0003:00001ec8       ?DloadSectionLockCount@@3KA 0000000180022ec8     DelayImp:delayhlp.obj
 0003:00001ecc       ?DloadSectionOldProtection@@3KA 0000000180022ecc     DelayImp:delayhlp.obj
 0003:00001ed0       ?DloadSectionCommitPermanent@@3KA 0000000180022ed0     DelayImp:delayhlp.obj
 0003:00001ed4       ?Memory@@3Vmemory@@A       0000000180022ed4     memoryjs.obj
 0003:00001ed5       ?Module@@3Vmodule@@A       0000000180022ed5     memoryjs.obj
 0003:00001ed6       ?Process@@3Vprocess@@A     0000000180022ed6     memoryjs.obj
 0003:00001ed7       ?Pattern@@3Vpattern@@A     0000000180022ed7     memoryjs.obj
 0003:00001ed8       __dyn_tls_init_callback    0000000180022ed8     <common>
 0003:00001ee0       __scrt_ucrt_dll_is_in_use  0000000180022ee0     <common>

 entry point at        0001:00007ad0

 Static symbols

 0000:fffd9000       .debug$S                   0000000180000000     kernel32:KERNEL32.dll
 0000:fffd9000       .debug$S                   0000000180000000     kernel32:KERNEL32.dll
 0000:fffd9000       .debug$S                   0000000180000000     memoryjs.exp
 0000:fffd9000       .debug$S                   0000000180000000     kernel32:KERNEL32.dll
 0000:fffd9000       .debug$S                   0000000180000000     kernel32:KERNEL32.dll
 0000:fffd9000       .debug$S                   0000000180000000     kernel32:KERNEL32.dll
 0000:fffd9000       .debug$S                   0000000180000000     kernel32:KERNEL32.dll
 0000:fffd9000       .debug$S                   0000000180000000     kernel32:KERNEL32.dll
 0000:fffd9000       .debug$S                   0000000180000000     kernel32:KERNEL32.dll
 0000:fffd9000       .debug$S                   0000000180000000     kernel32:KERNEL32.dll
 0000:fffd9000       .debug$S                   0000000180000000     kernel32:KERNEL32.dll
 0000:fffd9000       .debug$S                   0000000180000000     kernel32:KERNEL32.dll
 0000:fffd9000       .debug$S                   0000000180000000     kernel32:KERNEL32.dll
 0000:fffd9000       .debug$S                   0000000180000000     kernel32:KERNEL32.dll
 0000:fffd9000       .debug$S                   0000000180000000     kernel32:KERNEL32.dll
 0000:fffd9000       .debug$S                   0000000180000000     kernel32:KERNEL32.dll
 0000:fffd9000       .debug$S                   0000000180000000     kernel32:KERNEL32.dll
 0000:fffd9000       .debug$S                   0000000180000000     kernel32:KERNEL32.dll
 0000:fffd9000       .debug$S                   0000000180000000     kernel32:KERNEL32.dll
 0000:fffd9000       .debug$S                   0000000180000000     kernel32:KERNEL32.dll
 0000:fffd9000       .debug$S                   0000000180000000     kernel32:KERNEL32.dll
 0000:fffd9000       .debug$S                   0000000180000000     kernel32:KERNEL32.dll
 0000:fffd9000       .debug$S                   0000000180000000     kernel32:KERNEL32.dll
 0000:fffd9000       .debug$S                   0000000180000000     kernel32:KERNEL32.dll
 0000:fffd9000       .debug$S                   0000000180000000     kernel32:KERNEL32.dll
 0000:fffd9000       .debug$S                   0000000180000000     kernel32:KERNEL32.dll
 0000:fffd9000       .debug$S                   0000000180000000     kernel32:KERNEL32.dll
 0000:fffd9000       .debug$S                   0000000180000000     kernel32:KERNEL32.dll
 0000:fffd9000       .debug$S                   0000000180000000     kernel32:KERNEL32.dll
 0000:fffd9000       .debug$S                   0000000180000000     kernel32:KERNEL32.dll
 0000:fffd9000       .debug$S                   0000000180000000     kernel32:KERNEL32.dll
 0000:fffd9000       .debug$S                   0000000180000000     kernel32:KERNEL32.dll
 0000:fffd9000       .debug$S                   0000000180000000     kernel32:KERNEL32.dll
 0000:fffd9000       .debug$S                   0000000180000000     kernel32:KERNEL32.dll
 0000:fffd9000       .debug$S                   0000000180000000     kernel32:KERNEL32.dll
 0000:fffd9000       .debug$S                   0000000180000000     kernel32:KERNEL32.dll
 0000:fffd9000       .debug$S                   0000000180000000     kernel32:KERNEL32.dll
 0000:fffd9000       .debug$S                   0000000180000000     kernel32:KERNEL32.dll
 0000:fffd9000       .debug$S                   0000000180000000     kernel32:KERNEL32.dll
 0000:fffd9000       .debug$S                   0000000180000000     kernel32:KERNEL32.dll
 0000:fffd9000       .debug$S                   0000000180000000     kernel32:KERNEL32.dll
 0000:fffd9000       .debug$S                   0000000180000000     kernel32:KERNEL32.dll
 0000:fffd9000       .debug$S                   0000000180000000     kernel32:KERNEL32.dll
 0000:fffd9000       .debug$S                   0000000180000000     node:node.exe
 0000:fffd9000       .debug$S                   0000000180000000     kernel32:KERNEL32.dll
 0000:fffd9000       .debug$S                   0000000180000000     kernel32:KERNEL32.dll
 0000:fffd9000       .debug$S                   0000000180000000     kernel32:KERNEL32.dll
 0000:fffd9000       .debug$S                   0000000180000000     node:node.exe
 0000:fffd9000       .debug$S                   0000000180000000     kernel32:KERNEL32.dll
 0000:fffd9000       .debug$S                   0000000180000000     node:node.exe
 0000:fffd9000       .debug$S                   0000000180000000     kernel32:KERNEL32.dll
 0000:fffd9000       .debug$S                   0000000180000000     node:node.exe
 0000:fffd9000       .debug$S                   0000000180000000     kernel32:KERNEL32.dll
 0000:fffd9000       .debug$S                   0000000180000000     node:node.exe
 0000:fffd9000       .debug$S                   0000000180000000     kernel32:KERNEL32.dll
 0000:fffd9000       .debug$S                   0000000180000000     node:node.exe
 0000:fffd9000       .debug$S                   0000000180000000     kernel32:KERNEL32.dll
 0000:fffd9000       .debug$S                   0000000180000000     node:node.exe
 0000:fffd9000       .debug$S                   0000000180000000     kernel32:KERNEL32.dll
 0000:fffd9000       .debug$S                   0000000180000000     node:node.exe
 0000:fffd9000       .debug$S                   0000000180000000     kernel32:KERNEL32.dll
 0000:fffd9000       .debug$S                   0000000180000000     node:node.exe
 0000:fffd9000       .debug$S                   0000000180000000     kernel32:KERNEL32.dll
 0000:fffd9000       .debug$S                   0000000180000000     node:node.exe
 0000:fffd9000       .debug$S                   0000000180000000     kernel32:KERNEL32.dll
 0000:fffd9000       .debug$S                   0000000180000000     node:node.exe
 0000:fffd9000       .debug$S                   0000000180000000     kernel32:KERNEL32.dll
 0000:fffd9000       .debug$S                   0000000180000000     node:node.exe
 0000:fffd9000       .debug$S                   0000000180000000     kernel32:KERNEL32.dll
 0000:fffd9000       .debug$S                   0000000180000000     node:node.exe
 0000:fffd9000       .debug$S                   0000000180000000     kernel32:KERNEL32.dll
 0000:fffd9000       .debug$S                   0000000180000000     node:node.exe
 0000:fffd9000       .debug$S                   0000000180000000     kernel32:KERNEL32.dll
 0000:fffd9000       .debug$S                   0000000180000000     node:node.exe
 0000:fffd9000       .debug$S                   0000000180000000     kernel32:KERNEL32.dll
 0000:fffd9000       .debug$S                   0000000180000000     node:node.exe
 0000:fffd9000       .debug$S                   0000000180000000     kernel32:KERNEL32.dll
 0000:fffd9000       .debug$S                   0000000180000000     node:node.exe
 0000:fffd9000       .debug$S                   0000000180000000     kernel32:KERNEL32.dll
 0000:fffd9000       .debug$S                   0000000180000000     node:node.exe
 0000:fffd9000       .debug$S                   0000000180000000     kernel32:KERNEL32.dll
 0000:fffd9000       .debug$S                   0000000180000000     node:node.exe
 0000:fffd9000       .debug$S                   0000000180000000     kernel32:KERNEL32.dll
 0000:fffd9000       .debug$S                   0000000180000000     node:node.exe
 0000:fffd9000       .debug$S                   0000000180000000     kernel32:KERNEL32.dll
 0000:fffd9000       .debug$S                   0000000180000000     node:node.exe
 0000:fffd9000       .debug$S                   0000000180000000     kernel32:KERNEL32.dll
 0000:fffd9000       .debug$S                   0000000180000000     node:node.exe
 0000:fffd9000       .debug$S                   0000000180000000     kernel32:KERNEL32.dll
 0000:fffd9000       .debug$S                   0000000180000000     node:node.exe
 0000:fffd9000       .debug$S                   0000000180000000     kernel32:KERNEL32.dll
 0000:fffd9000       .debug$S                   0000000180000000     node:node.exe
 0000:fffd9000       .debug$S                   0000000180000000     kernel32:KERNEL32.dll
 0000:fffd9000       .debug$S                   0000000180000000     node:node.exe
 0000:fffd9000       .debug$S                   0000000180000000     kernel32:KERNEL32.dll
 0000:fffd9000       .debug$S                   0000000180000000     node:node.exe
 0000:fffd9000       .debug$S                   0000000180000000     kernel32:KERNEL32.dll
 0000:fffd9000       .debug$S                   0000000180000000     node:node.exe
 0000:fffd9000       .debug$S                   0000000180000000     kernel32:KERNEL32.dll
 0000:fffd9000       .debug$S                   0000000180000000     node:node.exe
 0000:fffd9000       .debug$S                   0000000180000000     kernel32:KERNEL32.dll
 0000:fffd9000       .debug$S                   0000000180000000     node:node.exe
 0000:fffd9000       .debug$S                   0000000180000000     kernel32:KERNEL32.dll
 0000:fffd9000       .debug$S                   0000000180000000     node:node.exe
 0000:fffd9000       .debug$S                   0000000180000000     kernel32:KERNEL32.dll
 0000:fffd9000       .debug$S                   0000000180000000     node:node.exe
 0000:fffd9000       .debug$S                   0000000180000000     kernel32:KERNEL32.dll
 0000:fffd9000       .debug$S                   0000000180000000     node:node.exe
 0000:fffd9000       .debug$S                   0000000180000000     kernel32:KERNEL32.dll
 0000:fffd9000       .debug$S                   0000000180000000     node:node.exe
 0000:fffd9000       .debug$S                   0000000180000000     kernel32:KERNEL32.dll
 0000:fffd9000       .debug$S                   0000000180000000     node:node.exe
 0000:fffd9000       .debug$S                   0000000180000000     kernel32:KERNEL32.dll
 0000:fffd9000       .debug$S                   0000000180000000     node:node.exe
 0000:fffd9000       .debug$S                   0000000180000000     kernel32:KERNEL32.dll
 0000:fffd9000       .debug$S                   0000000180000000     node:node.exe
 0000:fffd9000       .debug$S                   0000000180000000     kernel32:KERNEL32.dll
 0000:fffd9000       .debug$S                   0000000180000000     node:node.exe
 0000:fffd9000       .debug$S                   0000000180000000     kernel32:KERNEL32.dll
 0000:fffd9000       .debug$S                   0000000180000000     node:node.exe
 0000:fffd9000       .debug$S                   0000000180000000     kernel32:KERNEL32.dll
 0000:fffd9000       .debug$S                   0000000180000000     node:node.exe
 0000:fffd9000       .debug$S                   0000000180000000     kernel32:KERNEL32.dll
 0000:fffd9000       .debug$S                   0000000180000000     node:node.exe
 0000:fffd9000       .debug$S                   0000000180000000     kernel32:KERNEL32.dll
 0000:fffd9000       .debug$S                   0000000180000000     node:node.exe
 0000:fffd9000       .debug$S                   0000000180000000     kernel32:KERNEL32.dll
 0000:fffd9000       .debug$S                   0000000180000000     node:node.exe
 0000:fffd9000       .debug$S                   0000000180000000     kernel32:KERNEL32.dll
 0000:fffd9000       .debug$S                   0000000180000000     node:node.exe
 0000:fffd9000       .debug$S                   0000000180000000     kernel32:KERNEL32.dll
 0000:fffd9000       .debug$S                   0000000180000000     node:node.exe
 0000:fffd9000       .debug$S                   0000000180000000     kernel32:KERNEL32.dll
 0000:fffd9000       .debug$S                   0000000180000000     kernel32:KERNEL32.dll
 0000:fffd9000       .debug$S                   0000000180000000     kernel32:KERNEL32.dll
 0000:fffd9000       .debug$S                   0000000180000000     kernel32:KERNEL32.dll
 0000:fffd9000       .debug$S                   0000000180000000     kernel32:KERNEL32.dll
 0000:fffd9000       .debug$S                   0000000180000000     kernel32:KERNEL32.dll
 0000:fffd9000       .debug$S                   0000000180000000     kernel32:KERNEL32.dll
 0000:fffd9000       .debug$S                   0000000180000000     kernel32:KERNEL32.dll
 0000:fffd9000       .debug$S                   0000000180000000     kernel32:KERNEL32.dll
 0000:fffd9000       .debug$S                   0000000180000000     kernel32:KERNEL32.dll
 0000:fffd9000       .debug$S                   0000000180000000     kernel32:KERNEL32.dll
 0000:fffd9000       .debug$S                   0000000180000000     kernel32:KERNEL32.dll
 0000:fffd9000       .debug$S                   0000000180000000     kernel32:KERNEL32.dll
 0000:fffd9000       .debug$S                   0000000180000000     kernel32:KERNEL32.dll
 0000:fffd9000       .debug$S                   0000000180000000     kernel32:KERNEL32.dll
 0000:fffd9000       .debug$S                   0000000180000000     kernel32:KERNEL32.dll
 0000:fffd9000       .debug$S                   0000000180000000     kernel32:KERNEL32.dll
 0000:fffd9000       .debug$S                   0000000180000000     kernel32:KERNEL32.dll
 0000:fffd9000       .debug$S                   0000000180000000     kernel32:KERNEL32.dll
 0000:fffd9000       .debug$S                   0000000180000000     kernel32:KERNEL32.dll
 0000:fffd9000       .debug$S                   0000000180000000     kernel32:KERNEL32.dll
 0000:fffd9000       .debug$S                   0000000180000000     kernel32:KERNEL32.dll
 0000:fffd9000       .debug$S                   0000000180000000     kernel32:KERNEL32.dll
 0001:00000000       ??__EProcess@@YAXXZ        0000000180001000 f   memoryjs.obj
 0001:00000010       ??__EModule@@YAXXZ         0000000180001010 f   memoryjs.obj
 0001:00000020       ??__EPattern@@YAXXZ        0000000180001020 f   memoryjs.obj
 0001:00004f00       _register_memoryjs         0000000180005f00 f   memoryjs.obj
 0001:00006df0       ?load_exe_hook@@YAP6A_JXZIPEAUDelayLoadInfo@@@Z 0000000180007df0 f   win_delay_load_hook.obj
 0001:00007310       $$000000                   0000000180008310     LIBCMT:amdsecgs.obj
 0001:000077a0       ?dllmain_crt_dispatch@@YAHQEAUHINSTANCE__@@KQEAX@Z 00000001800087a0 f   LIBCMT:dll_dllmain.obj
 0001:000077f0       ?dllmain_crt_process_attach@@YAHQEAUHINSTANCE__@@QEAX@Z 00000001800087f0 f   LIBCMT:dll_dllmain.obj
 0001:0000790c       ?dllmain_crt_process_detach@@YAH_N@Z 000000018000890c f   LIBCMT:dll_dllmain.obj
 0001:0000799c       ?dllmain_dispatch@@YAHQEAUHINSTANCE__@@KQEAX@Z 000000018000899c f   LIBCMT:dll_dllmain.obj
 0001:00007cc8       capture_current_context    0000000180008cc8 f   LIBCMT:gs_report.obj
 0001:00007d38       capture_previous_context   0000000180008d38 f   LIBCMT:gs_report.obj
 0001:00008760       $$000000                   0000000180009760     libvcruntime:memset.obj
 0001:0000885c       MsetTab                    000000018000985c     libvcruntime:memset.obj
 0001:00008b54       ?try_get_function@@YAPEAXW4function_id@?A0xbfd18cd1@@QEBDQEBW4module_id@2@2@Z 0000000180009b54 f   libvcruntime:winapi_downlevel.obj
 0001:00008f40       $$000000                   0000000180009f40     libvcruntime:notify.obj
 0001:00009040       $$000000                   000000018000a040     libvcruntime:memcpy.obj
 0001:000090f7       MoveSmall                  000000018000a0f7     libvcruntime:memcpy.obj
 0001:000094b0       $$000000                   000000018000a4b0     libvcruntime:handlers.obj
 0001:00009d50       ??$?RV<lambda_d80eeec6fff315bfe5c115232f3240e3>@@AEAV<lambda_6e4b09c48022b2350581041d5f6b0c4c>@@V<lambda_2358e3775559c9db80273638284d5e45>@@@?$__crt_seh_guarded_call@X@@QEAAX$$QEAV<lambda_d80eeec6fff315bfe5c115232f3240e3>@@AEAV<lambda_6e4b09c48022b2350581041d5f6b0c4c>@@$$QEAV<lambda_2358e3775559c9db80273638284d5e45>@@@Z 000000018000ad50 f   libucrt:exit.obj
 0001:00009d88       ??R<lambda_6e4b09c48022b2350581041d5f6b0c4c>@@QEBA@XZ 000000018000ad88 f   libucrt:exit.obj
 0001:00009e60       ?atexit_exception_filter@@YAHK@Z 000000018000ae60 f   libucrt:exit.obj
 0001:00009e6c       ?common_exit@@YAXHW4_crt_exit_cleanup_mode@@W4_crt_exit_return_mode@@@Z 000000018000ae6c f   libucrt:exit.obj
 0001:00009f28       ?exit_or_terminate_process@@YAXI@Z 000000018000af28 f   libucrt:exit.obj
 0001:00009f74       ?try_cor_exit_process@@YAXI@Z 000000018000af74 f   libucrt:exit.obj
 0001:00009ffc       ??$parse_command_line@D@@YAXPEADPEAPEAD0PEA_K2@Z 000000018000affc f   libucrt:argv_parsing.obj
 0001:0000a3a0       ??$common_initialize_environment_nolock@D@@YAHXZ 000000018000b3a0 f   libucrt:environment_initialization.obj
 0001:0000a40c       ??$create_environment@D@@YAQEAPEADQEAD@Z 000000018000b40c f   libucrt:environment_initialization.obj
 0001:0000a518       ??$free_environment@D@@YAXQEAPEAD@Z 000000018000b518 f   libucrt:environment_initialization.obj
 0001:0000a518       ??$free_environment@_W@@YAXQEAPEA_W@Z 000000018000b518 f   libucrt:environment_initialization.obj
 0001:0000a55c       ??$uninitialize_environment_internal@D@@YAXAEAPEAPEAD@Z 000000018000b55c f   libucrt:environment_initialization.obj
 0001:0000a578       ??$uninitialize_environment_internal@_W@@YAXAEAPEAPEA_W@Z 000000018000b578 f   libucrt:environment_initialization.obj
 0001:0000a5d4       ??$?RV<lambda_7777bce6b2f8c936911f934f8298dc43>@@AEAV<lambda_f03950bc5685219e0bcd2087efbe011e>@@V<lambda_3883c3dff614d5e0c5f61bb1ac94921c>@@@?$__crt_seh_guarded_call@H@@QEAAH$$QEAV<lambda_7777bce6b2f8c936911f934f8298dc43>@@AEAV<lambda_f03950bc5685219e0bcd2087efbe011e>@@$$QEAV<lambda_3883c3dff614d5e0c5f61bb1ac94921c>@@@Z 000000018000b5d4 f   libucrt:onexit.obj
 0001:0000a610       ??$?RV<lambda_8369fcb7c4df1e85de37618bd2b85f07>@@AEAV<lambda_a10e4b102d4a2c3aac6f4f48bbdf488f>@@V<lambda_5b7707bd6d7a0c4713179f36c7fd995d>@@@?$__crt_seh_guarded_call@H@@QEAAH$$QEAV<lambda_8369fcb7c4df1e85de37618bd2b85f07>@@AEAV<lambda_a10e4b102d4a2c3aac6f4f48bbdf488f>@@$$QEAV<lambda_5b7707bd6d7a0c4713179f36c7fd995d>@@@Z 000000018000b610 f   libucrt:onexit.obj
 0001:0000a64c       ??R<lambda_a10e4b102d4a2c3aac6f4f48bbdf488f>@@QEBAHXZ 000000018000b64c f   libucrt:onexit.obj
 0001:0000a810       ??R<lambda_f03950bc5685219e0bcd2087efbe011e>@@QEBAHXZ 000000018000b810 f   libucrt:onexit.obj
 0001:0000aa30       initialize_global_variables 000000018000ba30 f   libucrt:initialization.obj
 0001:0000aa44       initialize_c               000000018000ba44 f   libucrt:initialization.obj
 0001:0000aa68       initialize_environment     000000018000ba68 f   libucrt:initialization.obj
 0001:0000aa68       uninitialize_global_state_isolation 000000018000ba68 f   libucrt:initialization.obj
 0001:0000aa68       uninitialize_c             000000018000ba68 f   libucrt:initialization.obj
 0001:0000aa68       report_memory_leaks        000000018000ba68 f   libucrt:initialization.obj
 0001:0000aa68       initialize_global_state_isolation 000000018000ba68 f   libucrt:initialization.obj
 0001:0000aa6c       uninitialize_environment   000000018000ba6c f   libucrt:initialization.obj
 0001:0000aa7c       initialize_pointers        000000018000ba7c f   libucrt:initialization.obj
 0001:0000aad0       uninitialize_vcruntime     000000018000bad0 f   libucrt:initialization.obj
 0001:0000aad8       uninitialize_allocated_memory 000000018000bad8 f   libucrt:initialization.obj
 0001:0000ab18       uninitialize_allocated_io_buffers 000000018000bb18 f   libucrt:initialization.obj
 0001:0000ad20       $$000000                   000000018000bd20     libucrt:strncmp.obj
 0001:0000b284       ?initialize_inherited_file_handles_nolock@@YAXXZ 000000018000c284 f   libucrt:ioinit.obj
 0001:0000b370       ?initialize_stdio_handles_nolock@@YAXXZ 000000018000c370 f   libucrt:ioinit.obj
 0001:0000b4e8       ??$?RV<lambda_0ae27a3a962d80f24befdcbee591983d>@@AEAV<lambda_8d0ee55de4b1038c4002e0adecdf1839>@@V<lambda_dc504788e8f1664fe9b84e20bfb512f2>@@@?$__crt_seh_guarded_call@X@@QEAAX$$QEAV<lambda_0ae27a3a962d80f24befdcbee591983d>@@AEAV<lambda_8d0ee55de4b1038c4002e0adecdf1839>@@$$QEAV<lambda_dc504788e8f1664fe9b84e20bfb512f2>@@@Z 000000018000c4e8 f   libucrt:per_thread_data.obj
 0001:0000b528       ??$?RV<lambda_2d41944a1d46af3157314b8a01080d33>@@AEAV<lambda_8f455de75cd7d7f24b4096f044d8b9e6>@@V<lambda_aa500f224e6afead328df44964fe2772>@@@?$__crt_seh_guarded_call@X@@QEAAX$$QEAV<lambda_2d41944a1d46af3157314b8a01080d33>@@AEAV<lambda_8f455de75cd7d7f24b4096f044d8b9e6>@@$$QEAV<lambda_aa500f224e6afead328df44964fe2772>@@@Z 000000018000c528 f   libucrt:per_thread_data.obj
 0001:0000b568       ??$?RV<lambda_aa87e3671a710a21b5dc78c0bdf72e11>@@AEAV<lambda_92619d2358a28f41a33ba319515a20b9>@@V<lambda_6992ecaafeb10aed2b74cb1fae11a551>@@@?$__crt_seh_guarded_call@X@@QEAAX$$QEAV<lambda_aa87e3671a710a21b5dc78c0bdf72e11>@@AEAV<lambda_92619d2358a28f41a33ba319515a20b9>@@$$QEAV<lambda_6992ecaafeb10aed2b74cb1fae11a551>@@@Z 000000018000c568 f   libucrt:per_thread_data.obj
 0001:0000b5b0       ??$?RV<lambda_f2e299630e499de9f9a165e60fcd3db5>@@AEAV<lambda_2ae9d31cdba2644fcbeaf08da7c24588>@@V<lambda_40d01ff24d0e7b3814fdbdcee8eab3c7>@@@?$__crt_seh_guarded_call@X@@QEAAX$$QEAV<lambda_f2e299630e499de9f9a165e60fcd3db5>@@AEAV<lambda_2ae9d31cdba2644fcbeaf08da7c24588>@@$$QEAV<lambda_40d01ff24d0e7b3814fdbdcee8eab3c7>@@@Z 000000018000c5b0 f   libucrt:per_thread_data.obj
 0001:0000b610       ?construct_ptd_array@@YAXQEAU__acrt_ptd@@@Z 000000018000c610 f   libucrt:per_thread_data.obj
 0001:0000b6e0       ?destroy_fls@@YAXPEAX@Z    000000018000c6e0 f   libucrt:per_thread_data.obj
 0001:0000b700       ?destroy_ptd_array@@YAXQEAU__acrt_ptd@@@Z 000000018000c700 f   libucrt:per_thread_data.obj
 0001:0000b7f8       ?replace_current_thread_locale_nolock@@YAXQEAU__acrt_ptd@@QEAU__crt_locale_data@@@Z 000000018000c7f8 f   libucrt:per_thread_data.obj
 0001:0000bba8       ?internal_isupper_l@@YA_NHQEAU__crt_locale_pointers@@@Z 000000018000cba8 f   libucrt:tolower_toupper.obj
 0001:0000bd94       ??$?RV<lambda_410d79af7f07d98d83a3f525b3859a53>@@AEAV<lambda_3e16ef9562a7dcce91392c22ab16ea36>@@V<lambda_38119f0e861e05405d8a144b9b982f0a>@@@?$__crt_seh_guarded_call@X@@QEAAX$$QEAV<lambda_410d79af7f07d98d83a3f525b3859a53>@@AEAV<lambda_3e16ef9562a7dcce91392c22ab16ea36>@@$$QEAV<lambda_38119f0e861e05405d8a144b9b982f0a>@@@Z 000000018000cd94 f   libucrt:wsetlocale.obj
 0001:0000bfac       ?<lambda_invoker_cdecl>@<lambda_c2303d2482d7c3675ea2e24c4cfb6115>@@CAHPEBX0@Z 000000018000cfac f   libucrt:argv_wildcards.obj
 0001:0000bfc0       ??$common_expand_argv_wildcards@D@@YAHQEAPEADQEAPEAPEAD@Z 000000018000cfc0 f   libucrt:argv_wildcards.obj
 0001:0000c1cc       ??$copy_and_add_argument_to_buffer@D@@YAHQEBD0_KAEAV?$argument_list@D@?A0x5f5c8891@@@Z 000000018000d1cc f   libucrt:argv_wildcards.obj
 0001:0000c364       ??$expand_argument_wildcards@D@@YAHQEAD0AEAV?$argument_list@D@?A0x5f5c8891@@@Z 000000018000d364 f   libucrt:argv_wildcards.obj
 0001:0000c518       ??$?RV<lambda_efdfa57d1f175319df784efa44bb7b81>@@AEAV<lambda_5f0a4c1567f8adc6734073e5d1e1b35c>@@V<lambda_2e8a7d3640ea6ccb4c2413664c2db6fd>@@@?$__crt_seh_guarded_call@X@@QEAAX$$QEAV<lambda_efdfa57d1f175319df784efa44bb7b81>@@AEAV<lambda_5f0a4c1567f8adc6734073e5d1e1b35c>@@$$QEAV<lambda_2e8a7d3640ea6ccb4c2413664c2db6fd>@@@Z 000000018000d518 f   libucrt:mbctype.obj
 0001:0000c6ec       ?getSystemCP@@YAHH@Z       000000018000d6ec f   libucrt:mbctype.obj
 0001:0000c76c       ?setSBCS@@YAXPEAU__crt_multibyte_data@@@Z 000000018000d76c f   libucrt:mbctype.obj
 0001:0000c7fc       ?setSBUpLow@@YAXPEAU__crt_multibyte_data@@@Z 000000018000d7fc f   libucrt:mbctype.obj
 0001:0000c9dc       ?setmbcp_internal@@YAHH_NQEAU__acrt_ptd@@QEAPEAU__crt_multibyte_data@@@Z 000000018000d9dc f   libucrt:mbctype.obj
 0001:0000cba0       ?update_thread_multibyte_data_internal@@YAPEAU__crt_multibyte_data@@QEAU__acrt_ptd@@QEAPEAU1@@Z 000000018000dba0 f   libucrt:mbctype.obj
 0001:0000cf94       ?x_ismbbtype_l@@YAHPEAU__crt_locale_pointers@@IHH@Z 000000018000df94 f   libucrt:ismbbyte.obj
 0001:0000d1ec       ?try_get_function@@YAPEAXW4function_id@?A0x391cf84c@@QEBDQEBW4module_id@2@2@Z 000000018000e1ec f   libucrt:winapi_thunks.obj
 0001:0000d840       ??$?RV<lambda_450d765d439847d4c735a33c368b5fc0>@@AEAV<lambda_44731a7d0e6d81c3e6aa82d741081786>@@V<lambda_601a2a7da3b7a96e9554ac7215c4b07c>@@@?$__crt_seh_guarded_call@P6AXH@Z@@QEAAP6AXH@Z$$QEAV<lambda_450d765d439847d4c735a33c368b5fc0>@@AEAV<lambda_44731a7d0e6d81c3e6aa82d741081786>@@$$QEAV<lambda_601a2a7da3b7a96e9554ac7215c4b07c>@@@Z 000000018000e840 f   libucrt:signal.obj
 0001:0000dba4       ??$?RV<lambda_842d9ff0dc9ef11c61343bbaebe7f885>@@AEAV<lambda_c5860995281e5c4ce005b3de8f5874ee>@@V<lambda_d90129c13df834fdcbf8d2b88dafcf2d>@@@?$__crt_seh_guarded_call@X@@QEAAX$$QEAV<lambda_842d9ff0dc9ef11c61343bbaebe7f885>@@AEAV<lambda_c5860995281e5c4ce005b3de8f5874ee>@@$$QEAV<lambda_d90129c13df834fdcbf8d2b88dafcf2d>@@@Z 000000018000eba4 f   libucrt:fflush.obj
 0001:0000dc40       ??$?RV<lambda_886d6c58226a84441f68b9f2b8217b83>@@AEAV<lambda_ab61a845afdef5b7c387490eaf3616ee>@@V<lambda_f7f22ab5edc0698d5f6905b0d3f44752>@@@?$__crt_seh_guarded_call@X@@QEAAX$$QEAV<lambda_886d6c58226a84441f68b9f2b8217b83>@@AEAV<lambda_ab61a845afdef5b7c387490eaf3616ee>@@$$QEAV<lambda_f7f22ab5edc0698d5f6905b0d3f44752>@@@Z 000000018000ec40 f   libucrt:fflush.obj
 0001:0000dd28       ?common_flush_all@@YAH_N@Z 000000018000ed28 f   libucrt:fflush.obj
 0001:0000e1dc       ??$translate_text_mode_nolock@D@@YAHHQEAD_K@Z 000000018000f1dc f   libucrt:read.obj
 0001:0000e398       ??$translate_text_mode_nolock@_W@@YAHHQEA_W_K@Z 000000018000f398 f   libucrt:read.obj
 0001:0000e5d0       ?translate_ansi_or_utf8_nolock@@YAHHQEAD_KQEA_W1@Z 000000018000f5d0 f   libucrt:read.obj
 0001:0000f4e4       ?__acrt_LCMapStringA_stat@@YAHPEAU__crt_locale_pointers@@PEB_WKPEBDHPEADHHH@Z 00000001800104e4 f   libucrt:lcmapstringa.obj
 0001:0000fa0c       ?free_crt_array_internal@@YAXQEAPEBX_K@Z 0000000180010a0c f   libucrt:inittime.obj
 0001:00010184       fallbackMethod             0000000180011184 f   libucrt:strpbrk.obj
 0001:00010554       $LN78                      0000000180011554     libucrt:strpbrk.obj
 0001:00010590       $LN77                      0000000180011590     libucrt:strpbrk.obj
 0001:000105d0       $LN76                      00000001800115d0     libucrt:strpbrk.obj
 0001:000106a8       ?initialize_multibyte@@YAHXZ 00000001800116a8 f   libucrt:multibyte_initializer.obj
 0001:00010780       ?GetTableIndexFromLocaleName@@YAHPEB_W@Z 0000000180011780 f   libucrt:lcidtoname_downlevel.obj
 0001:00010880       ??$?RV<lambda_a37b2b86f63e897a80ea819b0eb08c01>@@AEAV<lambda_38ce7e780aa69e748d6df282ebc68efe>@@V<lambda_99fb1378e971ab6e7edea83e3a7a83a2>@@@?$__crt_seh_guarded_call@H@@QEAAH$$QEAV<lambda_a37b2b86f63e897a80ea819b0eb08c01>@@AEAV<lambda_38ce7e780aa69e748d6df282ebc68efe>@@$$QEAV<lambda_99fb1378e971ab6e7edea83e3a7a83a2>@@@Z 0000000180011880 f   libucrt:commit.obj
 0001:000109a0       ?write_double_translated_ansi_nolock@@YA?AUwrite_result@?A0x17268360@@HQEBDI@Z 00000001800119a0 f   libucrt:write.obj
 0001:00010bc4       ?write_text_ansi_nolock@@YA?AUwrite_result@?A0x17268360@@HQEBDI@Z 0000000180011bc4 f   libucrt:write.obj
 0001:00010cc8       ?write_text_utf16le_nolock@@YA?AUwrite_result@?A0x17268360@@HQEBDI@Z 0000000180011cc8 f   libucrt:write.obj
 0001:00010de4       ?write_text_utf8_nolock@@YA?AUwrite_result@?A0x17268360@@HQEBDI@Z 0000000180011de4 f   libucrt:write.obj
 0001:000114d8       ??$common_lseek_nolock@_J@@YA_JH_JH@Z 00000001800124d8 f   libucrt:lseek.obj
 0001:000115e0       $$000000                   00000001800125e0     libucrt:log10.obj
 0001:00011b8c       ??$?RV<lambda_751a882b2c74d4b022dec766aa51a29a>@@AEAV<lambda_628dfdc04ba53c8bfc02c9951375f3f5>@@V<lambda_f6c7be5f7998530c34de24c7437d6b54>@@@?$__crt_seh_guarded_call@H@@QEAAH$$QEAV<lambda_751a882b2c74d4b022dec766aa51a29a>@@AEAV<lambda_628dfdc04ba53c8bfc02c9951375f3f5>@@$$QEAV<lambda_f6c7be5f7998530c34de24c7437d6b54>@@@Z 0000000180012b8c f   libucrt:close.obj
 0001:00011eac       _call_matherr              0000000180012eac f   libucrt:libm_error.obj
 0001:00011f14       _exception_enabled         0000000180012f14 f   libucrt:libm_error.obj
 0001:00012190       _log_special_common        0000000180013190 f   libucrt:log_special.obj
 0001:00012230       $$000000                   0000000180013230     libucrt:fpsr.obj
 0001:00012e80       $$000000                   0000000180013e80     LIBCMT:chkstk.obj
 0001:00012f10       $$000000                   0000000180013f10     libvcruntime:memcmp.obj
 0001:00012ff0       $$000000                   0000000180013ff0     LIBCMT:guard_dispatch.obj
 0001:00013010       __scrt_is_nonwritable_in_current_image$filt$0 0000000180014010 f   LIBCMT:utility.obj
 0001:00013028       ?fin$0@?0??dllmain_crt_process_attach@@YAHQEAUHINSTANCE__@@QEAX@Z@4HA 0000000180014028 f   LIBCMT:dll_dllmain.obj
 0001:0001303f       ?fin$0@?0??dllmain_crt_process_detach@@YAH_N@Z@4HA 000000018001403f f   LIBCMT:dll_dllmain.obj
 0001:0001305b       ?filt$0@?0??dllmain_dispatch@@YAHQEAUHINSTANCE__@@KQEAX@Z@4HA 000000018001405b f   LIBCMT:dll_dllmain.obj
 0001:00013091       __DestructExceptionObject$filt$0 0000000180014091 f   libvcruntime:ehhelpers.obj
 0001:000130a9       fgetc$fin$0                00000001800140a9 f   libucrt:fgetc.obj
 0001:000130c3       _query_new_handler$fin$0   00000001800140c3 f   libucrt:new_handler.obj
 0001:000130d9       ?fin$0@?0???$?RV<lambda_0ae27a3a962d80f24befdcbee591983d>@@AEAV<lambda_8d0ee55de4b1038c4002e0adecdf1839>@@V<lambda_dc504788e8f1664fe9b84e20bfb512f2>@@@?$__crt_seh_guarded_call@X@@QEAAX$$QEAV<lambda_0ae27a3a962d80f24befdcbee591983d>@@AEAV<lambda_8d0ee55de4b1038c4002e0adecdf1839>@@$$QEAV<lambda_dc504788e8f1664fe9b84e20bfb512f2>@@@Z@4HA 00000001800140d9 f   libucrt:per_thread_data.obj
 0001:000130d9       ?fin$0@?0???$?RV<lambda_7777bce6b2f8c936911f934f8298dc43>@@AEAV<lambda_f03950bc5685219e0bcd2087efbe011e>@@V<lambda_3883c3dff614d5e0c5f61bb1ac94921c>@@@?$__crt_seh_guarded_call@H@@QEAAH$$QEAV<lambda_7777bce6b2f8c936911f934f8298dc43>@@AEAV<lambda_f03950bc5685219e0bcd2087efbe011e>@@$$QEAV<lambda_3883c3dff614d5e0c5f61bb1ac94921c>@@@Z@4HA 00000001800140d9 f   libucrt:onexit.obj
 0001:000130d9       ?fin$0@?0???$?RV<lambda_450d765d439847d4c735a33c368b5fc0>@@AEAV<lambda_44731a7d0e6d81c3e6aa82d741081786>@@V<lambda_601a2a7da3b7a96e9554ac7215c4b07c>@@@?$__crt_seh_guarded_call@P6AXH@Z@@QEAAP6AXH@Z$$QEAV<lambda_450d765d439847d4c735a33c368b5fc0>@@AEAV<lambda_44731a7d0e6d81c3e6aa82d741081786>@@$$QEAV<lambda_601a2a7da3b7a96e9554ac7215c4b07c>@@@Z@4HA 00000001800140d9 f   libucrt:signal.obj
 0001:000130d9       ?fin$0@?0???$?RV<lambda_aa87e3671a710a21b5dc78c0bdf72e11>@@AEAV<lambda_92619d2358a28f41a33ba319515a20b9>@@V<lambda_6992ecaafeb10aed2b74cb1fae11a551>@@@?$__crt_seh_guarded_call@X@@QEAAX$$QEAV<lambda_aa87e3671a710a21b5dc78c0bdf72e11>@@AEAV<lambda_92619d2358a28f41a33ba319515a20b9>@@$$QEAV<lambda_6992ecaafeb10aed2b74cb1fae11a551>@@@Z@4HA 00000001800140d9 f   libucrt:per_thread_data.obj
 0001:000130d9       ?fin$0@?0???$?RV<lambda_f2e299630e499de9f9a165e60fcd3db5>@@AEAV<lambda_2ae9d31cdba2644fcbeaf08da7c24588>@@V<lambda_40d01ff24d0e7b3814fdbdcee8eab3c7>@@@?$__crt_seh_guarded_call@X@@QEAAX$$QEAV<lambda_f2e299630e499de9f9a165e60fcd3db5>@@AEAV<lambda_2ae9d31cdba2644fcbeaf08da7c24588>@@$$QEAV<lambda_40d01ff24d0e7b3814fdbdcee8eab3c7>@@@Z@4HA 00000001800140d9 f   libucrt:per_thread_data.obj
 0001:000130d9       ?fin$0@?0???$?RV<lambda_d80eeec6fff315bfe5c115232f3240e3>@@AEAV<lambda_6e4b09c48022b2350581041d5f6b0c4c>@@V<lambda_2358e3775559c9db80273638284d5e45>@@@?$__crt_seh_guarded_call@X@@QEAAX$$QEAV<lambda_d80eeec6fff315bfe5c115232f3240e3>@@AEAV<lambda_6e4b09c48022b2350581041d5f6b0c4c>@@$$QEAV<lambda_2358e3775559c9db80273638284d5e45>@@@Z@4HA 00000001800140d9 f   libucrt:exit.obj
 0001:000130d9       ?fin$0@?0???$?RV<lambda_efdfa57d1f175319df784efa44bb7b81>@@AEAV<lambda_5f0a4c1567f8adc6734073e5d1e1b35c>@@V<lambda_2e8a7d3640ea6ccb4c2413664c2db6fd>@@@?$__crt_seh_guarded_call@X@@QEAAX$$QEAV<lambda_efdfa57d1f175319df784efa44bb7b81>@@AEAV<lambda_5f0a4c1567f8adc6734073e5d1e1b35c>@@$$QEAV<lambda_2e8a7d3640ea6ccb4c2413664c2db6fd>@@@Z@4HA 00000001800140d9 f   libucrt:mbctype.obj
 0001:000130d9       ?fin$0@?0???$?RV<lambda_8369fcb7c4df1e85de37618bd2b85f07>@@AEAV<lambda_a10e4b102d4a2c3aac6f4f48bbdf488f>@@V<lambda_5b7707bd6d7a0c4713179f36c7fd995d>@@@?$__crt_seh_guarded_call@H@@QEAAH$$QEAV<lambda_8369fcb7c4df1e85de37618bd2b85f07>@@AEAV<lambda_a10e4b102d4a2c3aac6f4f48bbdf488f>@@$$QEAV<lambda_5b7707bd6d7a0c4713179f36c7fd995d>@@@Z@4HA 00000001800140d9 f   libucrt:onexit.obj
 0001:000130d9       ?fin$0@?0???$?RV<lambda_2d41944a1d46af3157314b8a01080d33>@@AEAV<lambda_8f455de75cd7d7f24b4096f044d8b9e6>@@V<lambda_aa500f224e6afead328df44964fe2772>@@@?$__crt_seh_guarded_call@X@@QEAAX$$QEAV<lambda_2d41944a1d46af3157314b8a01080d33>@@AEAV<lambda_8f455de75cd7d7f24b4096f044d8b9e6>@@$$QEAV<lambda_aa500f224e6afead328df44964fe2772>@@@Z@4HA 00000001800140d9 f   libucrt:per_thread_data.obj
 0001:000130f3       ?filt$0@?0???R<lambda_6e4b09c48022b2350581041d5f6b0c4c>@@QEBA@XZ@4HA 00000001800140f3 f   libucrt:exit.obj
 0001:0001310e       __acrt_initialize_lowio$fin$0 000000018001410e f   libucrt:ioinit.obj
 0001:0001310e       __acrt_lowio_ensure_fh_exists$fin$0 000000018001410e f   libucrt:osfinfo.obj
 0001:00013127       ?fin$0@?0???$?RV<lambda_410d79af7f07d98d83a3f525b3859a53>@@AEAV<lambda_3e16ef9562a7dcce91392c22ab16ea36>@@V<lambda_38119f0e861e05405d8a144b9b982f0a>@@@?$__crt_seh_guarded_call@X@@QEAAX$$QEAV<lambda_410d79af7f07d98d83a3f525b3859a53>@@AEAV<lambda_3e16ef9562a7dcce91392c22ab16ea36>@@$$QEAV<lambda_38119f0e861e05405d8a144b9b982f0a>@@@Z@4HA 0000000180014127 f   libucrt:wsetlocale.obj
 0001:00013141       ?fin$0@?0??update_thread_multibyte_data_internal@@YAPEAU__crt_multibyte_data@@QEAU__acrt_ptd@@QEAPEAU1@@Z@4HA 0000000180014141 f   libucrt:mbctype.obj
 0001:0001315a       raise$fin$0                000000018001415a f   libucrt:signal.obj
 0001:0001317b       ?fin$0@?0???$?RV<lambda_842d9ff0dc9ef11c61343bbaebe7f885>@@AEAV<lambda_c5860995281e5c4ce005b3de8f5874ee>@@V<lambda_d90129c13df834fdcbf8d2b88dafcf2d>@@@?$__crt_seh_guarded_call@X@@QEAAX$$QEAV<lambda_842d9ff0dc9ef11c61343bbaebe7f885>@@AEAV<lambda_c5860995281e5c4ce005b3de8f5874ee>@@$$QEAV<lambda_d90129c13df834fdcbf8d2b88dafcf2d>@@@Z@4HA 000000018001417b f   libucrt:fflush.obj
 0001:00013196       ?fin$0@?0???$?RV<lambda_886d6c58226a84441f68b9f2b8217b83>@@AEAV<lambda_ab61a845afdef5b7c387490eaf3616ee>@@V<lambda_f7f22ab5edc0698d5f6905b0d3f44752>@@@?$__crt_seh_guarded_call@X@@QEAAX$$QEAV<lambda_886d6c58226a84441f68b9f2b8217b83>@@AEAV<lambda_ab61a845afdef5b7c387490eaf3616ee>@@$$QEAV<lambda_f7f22ab5edc0698d5f6905b0d3f44752>@@@Z@4HA 0000000180014196 f   libucrt:fflush.obj
 0001:000131b3       _fcloseall$fin$0           00000001800141b3 f   libucrt:closeall.obj
 0001:000131cc       _read$fin$0                00000001800141cc f   libucrt:read.obj
 0001:000131e3       __acrt_update_thread_locale_data$fin$0 00000001800141e3 f   libucrt:locale_refcounting.obj
 0001:000131fc       ?fin$0@?0???$?RV<lambda_751a882b2c74d4b022dec766aa51a29a>@@AEAV<lambda_628dfdc04ba53c8bfc02c9951375f3f5>@@V<lambda_f6c7be5f7998530c34de24c7437d6b54>@@@?$__crt_seh_guarded_call@H@@QEAAH$$QEAV<lambda_751a882b2c74d4b022dec766aa51a29a>@@AEAV<lambda_628dfdc04ba53c8bfc02c9951375f3f5>@@$$QEAV<lambda_f6c7be5f7998530c34de24c7437d6b54>@@@Z@4HA 00000001800141fc f   libucrt:close.obj
 0001:000131fc       ?fin$0@?0???$?RV<lambda_a37b2b86f63e897a80ea819b0eb08c01>@@AEAV<lambda_38ce7e780aa69e748d6df282ebc68efe>@@V<lambda_99fb1378e971ab6e7edea83e3a7a83a2>@@@?$__crt_seh_guarded_call@H@@QEAAH$$QEAV<lambda_a37b2b86f63e897a80ea819b0eb08c01>@@AEAV<lambda_38ce7e780aa69e748d6df282ebc68efe>@@$$QEAV<lambda_99fb1378e971ab6e7edea83e3a7a83a2>@@@Z@4HA 00000001800141fc f   libucrt:commit.obj
 0001:00013216       _write$fin$0               0000000180014216 f   libucrt:write.obj
 0001:0001322d       fclose$fin$0               000000018001422d f   libucrt:fclose.obj
 0001:00013245       _ctrlfp$filt$0             0000000180014245 f   libucrt:fpctrl.obj
 0001:00013280       _IsNonwritableInCurrentImage$filt$0 0000000180014280 f   LIBCMT:pesect.obj
 0001:000132a0       ??__FProcess@@YAXXZ        00000001800142a0 f   memoryjs.obj
 0001:000132b0       ??__FModule@@YAXXZ         00000001800142b0 f   memoryjs.obj
 0001:000132c0       ??__FPattern@@YAXXZ        00000001800142c0 f   memoryjs.obj
 0002:000002f0       ?Process$initializer$@@3P6AXXZEA 00000001800152f0     memoryjs.obj
 0002:000002f8       ?Module$initializer$@@3P6AXXZEA 00000001800152f8     memoryjs.obj
 0002:00000300       ?Pattern$initializer$@@3P6AXXZEA 0000000180015300     memoryjs.obj
 0002:00000448       GS_ExceptionPointers       0000000180015448     LIBCMT:gs_report.obj
 0002:00000490       ?ExceptionTemplate@?1??_CxxThrowException@@9@4UEHExceptionRecord@@B 0000000180015490     libvcruntime:throw.obj
 0002:000004d0       ?tokenTable@@3QBQEBDB      00000001800154d0     libvcruntime:undname.obj
 0002:00000550       ?nameTable@@3QBQEBDB       0000000180015550     libvcruntime:undname.obj
 0002:000007e0       ?rttiTable@@3QBQEBDB       00000001800157e0     libvcruntime:undname.obj
 0002:00000e98       ?module_names@?A0xbfd18cd1@@3QBQEB_WB 0000000180015e98     libvcruntime:winapi_downlevel.obj
 0002:00000f68       ?candidate_modules@?1??try_get_FlsAlloc@@YAP6AKP6AXPEAX@Z@ZXZ@4QBW4module_id@?A0xbfd18cd1@@B 0000000180015f68     libvcruntime:winapi_downlevel.obj
 0002:00000f80       ?candidate_modules@?1??try_get_FlsFree@@YAP6AHK@ZXZ@4QBW4module_id@?A0xbfd18cd1@@B 0000000180015f80     libvcruntime:winapi_downlevel.obj
 0002:00000f90       ?candidate_modules@?1??try_get_FlsGetValue@@YAP6APEAXK@ZXZ@4QBW4module_id@?A0xbfd18cd1@@B 0000000180015f90     libvcruntime:winapi_downlevel.obj
 0002:00000fa8       ?candidate_modules@?1??try_get_FlsSetValue@@YAP6AHKPEAX@ZXZ@4QBW4module_id@?A0xbfd18cd1@@B 0000000180015fa8     libvcruntime:winapi_downlevel.obj
 0002:00000fc0       ?candidate_modules@?1??try_get_InitializeCriticalSectionEx@@YAP6AHPEAU_RTL_CRITICAL_SECTION@@KK@ZXZ@4QBW4module_id@?A0xbfd18cd1@@B 0000000180015fc0     libvcruntime:winapi_downlevel.obj
 0002:000010f0       __acrt_initializers        00000001800160f0     libucrt:initialization.obj
 0002:000011f0       ?errtable@@3QBUerrentry@?A0x31fdb9ec@@B 00000001800161f0     libucrt:errno.obj
 0002:000019d0       ?_mb_locale_names@@3QBQEB_WB 00000001800169d0     libucrt:mbctype.obj
 0002:00001a30       ?module_names@?A0x391cf84c@@3QBQEB_WB 0000000180016a30     libucrt:winapi_thunks.obj
 0002:00001fd8       ?candidate_modules@?1??try_get_FlsAlloc@@YAP6AKP6AXPEAX@Z@ZXZ@4QBW4module_id@?A0x391cf84c@@B 0000000180016fd8     libucrt:winapi_thunks.obj
 0002:00001ff0       ?candidate_modules@?1??try_get_FlsFree@@YAP6AHK@ZXZ@4QBW4module_id@?A0x391cf84c@@B 0000000180016ff0     libucrt:winapi_thunks.obj
 0002:00002000       ?candidate_modules@?1??try_get_FlsGetValue@@YAP6APEAXK@ZXZ@4QBW4module_id@?A0x391cf84c@@B 0000000180017000     libucrt:winapi_thunks.obj
 0002:00002018       ?candidate_modules@?1??try_get_FlsSetValue@@YAP6AHKPEAX@ZXZ@4QBW4module_id@?A0x391cf84c@@B 0000000180017018     libucrt:winapi_thunks.obj
 0002:00002030       ?candidate_modules@?1??try_get_InitializeCriticalSectionEx@@YAP6AHPEAU_RTL_CRITICAL_SECTION@@KK@ZXZ@4QBW4module_id@?A0x391cf84c@@B 0000000180017030     libucrt:winapi_thunks.obj
 0002:00002058       ?candidate_modules@?1??try_get_LCMapStringEx@@YAP6AHPEB_WK0HPEA_WHPEAU_nlsversioninfo@@PEAX_J@ZXZ@4QBW4module_id@?A0x391cf84c@@B 0000000180017058     libucrt:winapi_thunks.obj
 0002:00002070       ?candidate_modules@?1??try_get_LocaleNameToLCID@@YAP6AKPEB_WK@ZXZ@4QBW4module_id@?A0x391cf84c@@B 0000000180017070     libucrt:winapi_thunks.obj
 0002:0000208c       ?candidate_modules@?1??try_get_AppPolicyGetProcessTerminationMethod@@YAP6AJPEAXPEAW4AppPolicyProcessTerminationMethod@@@ZXZ@4QBW4module_id@?A0x391cf84c@@B 000000018001708c     libucrt:winapi_thunks.obj
 0002:000030b0       ?LocaleNameToIndexTable@?A0x881e4c05@@3QBULocaleNameIndex@1@B 00000001800180b0     libucrt:lcidtoname_downlevel.obj
 0002:00004950       ?LcidToLocaleNameTable@?A0x881e4c05@@3QBULcidToLocaleName@1@B 0000000180019950     libucrt:lcidtoname_downlevel.obj
 0002:000059d0       __real_ninf                000000018001a9d0     libucrt:log10.obj
 0002:000059e0       __real_inf                 000000018001a9e0     libucrt:log10.obj
 0002:000059f0       __real_neg_qnan            000000018001a9f0     libucrt:log10.obj
 0002:00005a00       __real_qnanbit             000000018001aa00     libucrt:log10.obj
 0002:00005a10       __int_1023                 000000018001aa10     libucrt:log10.obj
 0002:00005a20       __mask_001                 000000018001aa20     libucrt:log10.obj
 0002:00005a30       __mask_mant                000000018001aa30     libucrt:log10.obj
 0002:00005a40       __mask_mant_top8           000000018001aa40     libucrt:log10.obj
 0002:00005a50       __mask_mant9               000000018001aa50     libucrt:log10.obj
 0002:00005a60       __real_log10_e             000000018001aa60     libucrt:log10.obj
 0002:00005a70       __real_log10_e_lead        000000018001aa70     libucrt:log10.obj
 0002:00005a80       __real_log10_e_tail        000000018001aa80     libucrt:log10.obj
 0002:00005a90       __real_log10_2_lead        000000018001aa90     libucrt:log10.obj
 0002:00005aa0       __real_log10_2_tail        000000018001aaa0     libucrt:log10.obj
 0002:00005ab0       __real_two                 000000018001aab0     libucrt:log10.obj
 0002:00005ac0       __real_one                 000000018001aac0     libucrt:log10.obj
 0002:00005ad0       __real_half                000000018001aad0     libucrt:log10.obj
 0002:00005ae0       __mask_100                 000000018001aae0     libucrt:log10.obj
 0002:00005af0       __real_1_over_512          000000018001aaf0     libucrt:log10.obj
 0002:00005b00       __real_1_over_2            000000018001ab00     libucrt:log10.obj
 0002:00005b10       __real_1_over_3            000000018001ab10     libucrt:log10.obj
 0002:00005b20       __real_1_over_4            000000018001ab20     libucrt:log10.obj
 0002:00005b30       __real_1_over_5            000000018001ab30     libucrt:log10.obj
 0002:00005b40       __real_1_over_6            000000018001ab40     libucrt:log10.obj
 0002:00005b50       __real_neg_1023            000000018001ab50     libucrt:log10.obj
 0002:00005b60       __mask_2045                000000018001ab60     libucrt:log10.obj
 0002:00005b70       __real_threshold           000000018001ab70     libucrt:log10.obj
 0002:00005b80       __real_near_one_lt         000000018001ab80     libucrt:log10.obj
 0002:00005b90       __real_near_one_gt         000000018001ab90     libucrt:log10.obj
 0002:00005ba0       __real_min_norm            000000018001aba0     libucrt:log10.obj
 0002:00005bb0       __real_notsign             000000018001abb0     libucrt:log10.obj
 0002:00005bc0       __real_ca1                 000000018001abc0     libucrt:log10.obj
 0002:00005bd0       __real_ca2                 000000018001abd0     libucrt:log10.obj
 0002:00005be0       __real_ca3                 000000018001abe0     libucrt:log10.obj
 0002:00005bf0       __real_ca4                 000000018001abf0     libucrt:log10.obj
 0002:00005c00       __mask_lower               000000018001ac00     libucrt:log10.obj
 0002:00005c10       __flag_x_zero              000000018001ac10     libucrt:log10.obj
 0002:00005c14       __flag_x_neg               000000018001ac14     libucrt:log10.obj
 0002:00005c18       __flag_x_nan               000000018001ac18     libucrt:log10.obj
 0002:00007470       __real@433fffffffffffff    000000018001c470     libucrt:fpsr.obj
 0002:00007478       __real@c33fffffffffffff    000000018001c478     libucrt:fpsr.obj
 0002:000087e0       $unwind$?NODE_SET_METHOD@node@@YAXV?$Local@VObject@v8@@@v8@@PEBDP6AXAEBV?$FunctionCallbackInfo@VValue@v8@@@3@@Z@Z 000000018001d7e0     memoryjs.obj
 0002:000087f4       $unwind$_isleadbyte_l      000000018001d7f4     libucrt:_wctype.obj
 0002:000087f4       $unwind$__dcrt_lowio_ensure_console_output_initialized 000000018001d7f4     libucrt:initcon.obj
 0002:000087f4       $unwind$?throwError@memoryjs@@SAXPEADPEAVIsolate@v8@@@Z 000000018001d7f4     memoryjs.obj
 0002:000087f4       $unwind$?getSystemCP@@YAHH@Z 000000018001d7f4     libucrt:mbctype.obj
 0002:000087f4       $unwind$__scrt_initialize_onexit_tables 000000018001d7f4     LIBCMT:utility.obj
 0002:000087fc       $unwind$?openProcess@@YAXAEBV?$FunctionCallbackInfo@VValue@v8@@@v8@@@Z 000000018001d7fc     memoryjs.obj
 0002:00008814       $chain$0$?openProcess@@YAXAEBV?$FunctionCallbackInfo@VValue@v8@@@v8@@@Z 000000018001d814     memoryjs.obj
 0002:00008828       $chain$4$?openProcess@@YAXAEBV?$FunctionCallbackInfo@VValue@v8@@@v8@@@Z 000000018001d828     memoryjs.obj
 0002:00008848       $chain$5$?openProcess@@YAXAEBV?$FunctionCallbackInfo@VValue@v8@@@v8@@@Z 000000018001d848     memoryjs.obj
 0002:00008858       $chain$6$?openProcess@@YAXAEBV?$FunctionCallbackInfo@VValue@v8@@@v8@@@Z 000000018001d858     memoryjs.obj
 0002:00008868       $chain$7$?openProcess@@YAXAEBV?$FunctionCallbackInfo@VValue@v8@@@v8@@@Z 000000018001d868     memoryjs.obj
 0002:0000888c       $unwind$?closeProcess@@YAXAEBV?$FunctionCallbackInfo@VValue@v8@@@v8@@@Z 000000018001d88c     memoryjs.obj
 0002:00008898       $unwind$?getProcesses@@YAXAEBV?$FunctionCallbackInfo@VValue@v8@@@v8@@@Z 000000018001d898     memoryjs.obj
 0002:000088a8       $chain$0$?getProcesses@@YAXAEBV?$FunctionCallbackInfo@VValue@v8@@@v8@@@Z 000000018001d8a8     memoryjs.obj
 0002:000088bc       $chain$2$?getProcesses@@YAXAEBV?$FunctionCallbackInfo@VValue@v8@@@v8@@@Z 000000018001d8bc     memoryjs.obj
 0002:000088d4       $chain$3$?getProcesses@@YAXAEBV?$FunctionCallbackInfo@VValue@v8@@@v8@@@Z 000000018001d8d4     memoryjs.obj
 0002:000088e8       $chain$4$?getProcesses@@YAXAEBV?$FunctionCallbackInfo@VValue@v8@@@v8@@@Z 000000018001d8e8     memoryjs.obj
 0002:000088fc       $chain$5$?getProcesses@@YAXAEBV?$FunctionCallbackInfo@VValue@v8@@@v8@@@Z 000000018001d8fc     memoryjs.obj
 0002:0000890c       $chain$6$?getProcesses@@YAXAEBV?$FunctionCallbackInfo@VValue@v8@@@v8@@@Z 000000018001d90c     memoryjs.obj
 0002:0000891c       $chain$7$?getProcesses@@YAXAEBV?$FunctionCallbackInfo@VValue@v8@@@v8@@@Z 000000018001d91c     memoryjs.obj
 0002:00008930       $chain$9$?getProcesses@@YAXAEBV?$FunctionCallbackInfo@VValue@v8@@@v8@@@Z 000000018001d930     memoryjs.obj
 0002:00008948       $unwind$?getModules@@YAXAEBV?$FunctionCallbackInfo@VValue@v8@@@v8@@@Z 000000018001d948     memoryjs.obj
 0002:00008958       $chain$2$?getModules@@YAXAEBV?$FunctionCallbackInfo@VValue@v8@@@v8@@@Z 000000018001d958     memoryjs.obj
 0002:00008974       $chain$3$?getModules@@YAXAEBV?$FunctionCallbackInfo@VValue@v8@@@v8@@@Z 000000018001d974     memoryjs.obj
 0002:00008988       $chain$5$?getModules@@YAXAEBV?$FunctionCallbackInfo@VValue@v8@@@v8@@@Z 000000018001d988     memoryjs.obj
 0002:000089a0       $chain$6$?getModules@@YAXAEBV?$FunctionCallbackInfo@VValue@v8@@@v8@@@Z 000000018001d9a0     memoryjs.obj
 0002:000089b0       $chain$7$?getModules@@YAXAEBV?$FunctionCallbackInfo@VValue@v8@@@v8@@@Z 000000018001d9b0     memoryjs.obj
 0002:000089c0       $chain$10$?getModules@@YAXAEBV?$FunctionCallbackInfo@VValue@v8@@@v8@@@Z 000000018001d9c0     memoryjs.obj
 0002:000089c0       $chain$8$?getModules@@YAXAEBV?$FunctionCallbackInfo@VValue@v8@@@v8@@@Z 000000018001d9c0     memoryjs.obj
 0002:000089d8       $unwind$?findModule@@YAXAEBV?$FunctionCallbackInfo@VValue@v8@@@v8@@@Z 000000018001d9d8     memoryjs.obj
 0002:000089f0       $chain$0$?findModule@@YAXAEBV?$FunctionCallbackInfo@VValue@v8@@@v8@@@Z 000000018001d9f0     memoryjs.obj
 0002:00008a04       $chain$2$?findModule@@YAXAEBV?$FunctionCallbackInfo@VValue@v8@@@v8@@@Z 000000018001da04     memoryjs.obj
 0002:00008a1c       $chain$3$?findModule@@YAXAEBV?$FunctionCallbackInfo@VValue@v8@@@v8@@@Z 000000018001da1c     memoryjs.obj
 0002:00008a2c       $chain$4$?findModule@@YAXAEBV?$FunctionCallbackInfo@VValue@v8@@@v8@@@Z 000000018001da2c     memoryjs.obj
 0002:00008a3c       $unwind$?readMemory@@YAXAEBV?$FunctionCallbackInfo@VValue@v8@@@v8@@@Z 000000018001da3c     memoryjs.obj
 0002:00008a54       $chain$0$?readMemory@@YAXAEBV?$FunctionCallbackInfo@VValue@v8@@@v8@@@Z 000000018001da54     memoryjs.obj
 0002:00008a68       $chain$3$?readMemory@@YAXAEBV?$FunctionCallbackInfo@VValue@v8@@@v8@@@Z 000000018001da68     memoryjs.obj
 0002:00008a84       $chain$4$?readMemory@@YAXAEBV?$FunctionCallbackInfo@VValue@v8@@@v8@@@Z 000000018001da84     memoryjs.obj
 0002:00008a98       $chain$5$?readMemory@@YAXAEBV?$FunctionCallbackInfo@VValue@v8@@@v8@@@Z 000000018001da98     memoryjs.obj
 0002:00008aa8       $chain$6$?readMemory@@YAXAEBV?$FunctionCallbackInfo@VValue@v8@@@v8@@@Z 000000018001daa8     memoryjs.obj
 0002:00008ab8       $chain$7$?readMemory@@YAXAEBV?$FunctionCallbackInfo@VValue@v8@@@v8@@@Z 000000018001dab8     memoryjs.obj
 0002:00008ac8       $chain$8$?readMemory@@YAXAEBV?$FunctionCallbackInfo@VValue@v8@@@v8@@@Z 000000018001dac8     memoryjs.obj
 0002:00008ae8       $unwind$?readBuffer@@YAXAEBV?$FunctionCallbackInfo@VValue@v8@@@v8@@@Z 000000018001dae8     memoryjs.obj
 0002:00008af4       $chain$0$?readBuffer@@YAXAEBV?$FunctionCallbackInfo@VValue@v8@@@v8@@@Z 000000018001daf4     memoryjs.obj
 0002:00008b08       $chain$4$?readBuffer@@YAXAEBV?$FunctionCallbackInfo@VValue@v8@@@v8@@@Z 000000018001db08     memoryjs.obj
 0002:00008b28       $chain$5$?readBuffer@@YAXAEBV?$FunctionCallbackInfo@VValue@v8@@@v8@@@Z 000000018001db28     memoryjs.obj
 0002:00008b3c       $chain$6$?readBuffer@@YAXAEBV?$FunctionCallbackInfo@VValue@v8@@@v8@@@Z 000000018001db3c     memoryjs.obj
 0002:00008b3c       $chain$8$?readBuffer@@YAXAEBV?$FunctionCallbackInfo@VValue@v8@@@v8@@@Z 000000018001db3c     memoryjs.obj
 0002:00008b3c       $chain$10$?readBuffer@@YAXAEBV?$FunctionCallbackInfo@VValue@v8@@@v8@@@Z 000000018001db3c     memoryjs.obj
 0002:00008b50       $unwind$?writeMemory@@YAXAEBV?$FunctionCallbackInfo@VValue@v8@@@v8@@@Z 000000018001db50     memoryjs.obj
 0002:00008b68       $chain$5$?writeMemory@@YAXAEBV?$FunctionCallbackInfo@VValue@v8@@@v8@@@Z 000000018001db68     memoryjs.obj
 0002:00008b90       $chain$6$?writeMemory@@YAXAEBV?$FunctionCallbackInfo@VValue@v8@@@v8@@@Z 000000018001db90     memoryjs.obj
 0002:00008ba4       $chain$7$?writeMemory@@YAXAEBV?$FunctionCallbackInfo@VValue@v8@@@v8@@@Z 000000018001dba4     memoryjs.obj
 0002:00008bb4       $chain$8$?writeMemory@@YAXAEBV?$FunctionCallbackInfo@VValue@v8@@@v8@@@Z 000000018001dbb4     memoryjs.obj
 0002:00008bc4       $unwind$?writeBuffer@@YAXAEBV?$FunctionCallbackInfo@VValue@v8@@@v8@@@Z 000000018001dbc4     memoryjs.obj
 0002:00008bd8       $unwind$?findPattern@@YAXAEBV?$FunctionCallbackInfo@VValue@v8@@@v8@@@Z 000000018001dbd8     memoryjs.obj
 0002:00008c00       $chain$2$?findPattern@@YAXAEBV?$FunctionCallbackInfo@VValue@v8@@@v8@@@Z 000000018001dc00     memoryjs.obj
 0002:00008c14       $chain$3$?findPattern@@YAXAEBV?$FunctionCallbackInfo@VValue@v8@@@v8@@@Z 000000018001dc14     memoryjs.obj
 0002:00008c24       $unwind$?setProtection@@YAXAEBV?$FunctionCallbackInfo@VValue@v8@@@v8@@@Z 000000018001dc24     memoryjs.obj
 0002:00008c30       $chain$2$?setProtection@@YAXAEBV?$FunctionCallbackInfo@VValue@v8@@@v8@@@Z 000000018001dc30     memoryjs.obj
 0002:00008c4c       $chain$3$?setProtection@@YAXAEBV?$FunctionCallbackInfo@VValue@v8@@@v8@@@Z 000000018001dc4c     memoryjs.obj
 0002:00008c5c       $unwind$?callFunction@@YAXAEBV?$FunctionCallbackInfo@VValue@v8@@@v8@@@Z 000000018001dc5c     memoryjs.obj
 0002:00008c74       $chain$5$?callFunction@@YAXAEBV?$FunctionCallbackInfo@VValue@v8@@@v8@@@Z 000000018001dc74     memoryjs.obj
 0002:00008c9c       $chain$6$?callFunction@@YAXAEBV?$FunctionCallbackInfo@VValue@v8@@@v8@@@Z 000000018001dc9c     memoryjs.obj
 0002:00008cac       $chain$7$?callFunction@@YAXAEBV?$FunctionCallbackInfo@VValue@v8@@@v8@@@Z 000000018001dcac     memoryjs.obj
 0002:00008cd4       $unwind$?virtualAllocEx@@YAXAEBV?$FunctionCallbackInfo@VValue@v8@@@v8@@@Z 000000018001dcd4     memoryjs.obj
 0002:00008ce0       $chain$4$?virtualAllocEx@@YAXAEBV?$FunctionCallbackInfo@VValue@v8@@@v8@@@Z 000000018001dce0     memoryjs.obj
 0002:00008d04       $chain$5$?virtualAllocEx@@YAXAEBV?$FunctionCallbackInfo@VValue@v8@@@v8@@@Z 000000018001dd04     memoryjs.obj
 0002:00008d18       $chain$8$?virtualAllocEx@@YAXAEBV?$FunctionCallbackInfo@VValue@v8@@@v8@@@Z 000000018001dd18     memoryjs.obj
 0002:00008d30       $chain$12$?virtualAllocEx@@YAXAEBV?$FunctionCallbackInfo@VValue@v8@@@v8@@@Z 000000018001dd30     memoryjs.obj
 0002:00008d30       $chain$10$?virtualAllocEx@@YAXAEBV?$FunctionCallbackInfo@VValue@v8@@@v8@@@Z 000000018001dd30     memoryjs.obj
 0002:00008d48       $chain$13$?virtualAllocEx@@YAXAEBV?$FunctionCallbackInfo@VValue@v8@@@v8@@@Z 000000018001dd48     memoryjs.obj
 0002:00008d58       $unwind$__acrt_update_locale_info 000000018001dd58     libucrt:locale_update.obj
 0002:00008d58       $unwind$?load_exe_hook@@YAP6A_JXZIPEAUDelayLoadInfo@@@Z 000000018001dd58     win_delay_load_hook.obj
 0002:00008d58       $unwind$__vcrt_uninitialize_locks 000000018001dd58     libvcruntime:locks.obj
 0002:00008d58       $unwind$__acrt_uninitialize_stdio 000000018001dd58     libucrt:_file.obj
 0002:00008d58       $unwind$__vcrt_initialize_locks 000000018001dd58     libvcruntime:locks.obj
 0002:00008d58       $unwind$_onexit            000000018001dd58     LIBCMT:utility.obj
 0002:00008d58       $unwind$__vcrt_FlsAlloc    000000018001dd58     libvcruntime:winapi_downlevel.obj
 0002:00008d58       $unwind$?internal_isupper_l@@YA_NHQEAU__crt_locale_pointers@@@Z 000000018001dd58     libucrt:tolower_toupper.obj
 0002:00008d58       $unwind$_malloc_base       000000018001dd58     libucrt:malloc_base.obj
 0002:00008d58       $unwind$__vcrt_FlsFree     000000018001dd58     libvcruntime:winapi_downlevel.obj
 0002:00008d58       $unwind$__acrt_stdio_free_buffer_nolock 000000018001dd58     libucrt:_freebuf.obj
 0002:00008d58       $unwind$??0exception@std@@QEAA@AEBV01@@Z 000000018001dd58     libcpmt:xthrow.obj
 0002:00008d58       $unwind$?init@@YAXV?$Local@VObject@v8@@@v8@@@Z 000000018001dd58     memoryjs.obj
 0002:00008d58       $unwind$__acrt_update_multibyte_info 000000018001dd58     libucrt:locale_update.obj
 0002:00008d58       $unwind$__vcrt_FlsGetValue 000000018001dd58     libvcruntime:winapi_downlevel.obj
 0002:00008d58       $unwind$??0bad_alloc@std@@QEAA@AEBV01@@Z 000000018001dd58     libcpmt:xthrow.obj
 0002:00008d58       $unwind$__vcrt_freeptd     000000018001dd58     libvcruntime:per_thread_data.obj
 0002:00008d58       $unwind$initialize_pointers 000000018001dd58     libucrt:initialization.obj
 0002:00008d58       $unwind$uninitialize_allocated_memory 000000018001dd58     libucrt:initialization.obj
 0002:00008d58       $unwind$__acrt_freeptd     000000018001dd58     libucrt:per_thread_data.obj
 0002:00008d58       $unwind$?try_cor_exit_process@@YAXI@Z 000000018001dd58     libucrt:exit.obj
 0002:00008d58       $unwind$_callnewh          000000018001dd58     libucrt:new_handler.obj
 0002:00008d58       $unwind$??0logic_error@std@@QEAA@AEBV01@@Z 000000018001dd58     libcpmt:xthrow.obj
 0002:00008d58       $unwind$__acrt_stdio_allocate_buffer_nolock 000000018001dd58     libucrt:_getbuf.obj
 0002:00008d58       $unwind$_fflush_nolock     000000018001dd58     libucrt:fflush.obj
 0002:00008d58       $unwind$__scrt_release_startup_lock 000000018001dd58     LIBCMT:utility.obj
 0002:00008d58       $unwind$strcpy_s           000000018001dd58     libucrt:strcpy_s.obj
 0002:00008d58       $unwind$??0length_error@std@@QEAA@AEBV01@@Z 000000018001dd58     libcpmt:xthrow.obj
 0002:00008d58       $unwind$__scrt_initialize_crt 000000018001dd58     LIBCMT:utility.obj
 0002:00008d58       $unwind$??2@YAPEAX_K@Z     000000018001dd58     LIBCMT:new_scalar.obj
 0002:00008d58       $unwind$?exit_or_terminate_process@@YAXI@Z 000000018001dd58     libucrt:exit.obj
 0002:00008d58       $unwind$?DloadAcquireSectionWriteAccess@@YAXXZ 000000018001dd58     DelayImp:delayhlp.obj
 0002:00008d58       $unwind$__acrt_allocate_buffer_for_argv 000000018001dd58     libucrt:argv_parsing.obj
 0002:00008d58       $unwind$??0bad_array_new_length@std@@QEAA@AEBV01@@Z 000000018001dd58     LIBCMT:throw_bad_alloc.obj
 0002:00008d58       $unwind$__raise_securityfailure 000000018001dd58     LIBCMT:gs_report.obj
 0002:00008d58       $unwind$__acrt_AppPolicyGetProcessTerminationMethodInternal 000000018001dd58     libucrt:winapi_thunks.obj
 0002:00008d58       $unwind$__acrt_initialize_locks 000000018001dd58     libucrt:locks.obj
 0002:00008d58       $unwind$__acrt_uninitialize_locks 000000018001dd58     libucrt:locks.obj
 0002:00008d58       $unwind$__scrt_uninitialize_crt 000000018001dd58     LIBCMT:utility.obj
 0002:00008d58       $unwind$__acrt_get_process_end_policy 000000018001dd58     libucrt:win_policies.obj
 0002:00008d58       $unwind$__acrt_getptd_head 000000018001dd58     libucrt:per_thread_data.obj
 0002:00008d58       $unwind$__acrt_FlsGetValue 000000018001dd58     libucrt:winapi_thunks.obj
 0002:00008d58       $unwind$_set_statfp        000000018001dd58     libucrt:fpctrl.obj
 0002:00008d58       $unwind$_calloc_base       000000018001dd58     libucrt:calloc_base.obj
 0002:00008d58       $unwind$??0out_of_range@std@@QEAA@AEBV01@@Z 000000018001dd58     libcpmt:xthrow.obj
 0002:00008d58       $unwind$__acrt_FlsFree     000000018001dd58     libucrt:winapi_thunks.obj
 0002:00008d58       $unwind$__acrt_FlsAlloc    000000018001dd58     libucrt:winapi_thunks.obj
 0002:00008d58       $unwind$__acrt_uninitialize_winapi_thunks 000000018001dd58     libucrt:winapi_thunks.obj
 0002:00008d58       $unwind$_clrfp             000000018001dd58     libucrt:fpctrl.obj
 0002:00008d58       $unwind$__std_type_info_destroy_list 000000018001dd58     libvcruntime:std_type_info.obj
 0002:00008d58       $unwind$??_Gtype_info@@UEAAPEAXI@Z 000000018001dd58     LIBCMT:std_type_info_static.obj
 0002:00008d58       $unwind$__std_exception_destroy 000000018001dd58     libvcruntime:std_exception.obj
 0002:00008d60       $unwind$?assign@?$basic_string@DU?$char_traits@D@std@@V?$allocator@D@2@@std@@QEAAAEAV12@QEBD_K@Z 000000018001dd60     memoryjs.obj
 0002:00008d74       $chain$0$?assign@?$basic_string@DU?$char_traits@D@std@@V?$allocator@D@2@@std@@QEAAAEAV12@QEBD_K@Z 000000018001dd74     memoryjs.obj
 0002:00008d88       $chain$3$?assign@?$basic_string@DU?$char_traits@D@std@@V?$allocator@D@2@@std@@QEAAAEAV12@QEBD_K@Z 000000018001dd88     memoryjs.obj
 0002:00008d88       $chain$1$?assign@?$basic_string@DU?$char_traits@D@std@@V?$allocator@D@2@@std@@QEAAAEAV12@QEBD_K@Z 000000018001dd88     memoryjs.obj
 0002:00008d98       $chain$2$?assign@?$basic_string@DU?$char_traits@D@std@@V?$allocator@D@2@@std@@QEAAAEAV12@QEBD_K@Z 000000018001dd98     memoryjs.obj
 0002:00008dac       $unwind$__acrt_initialize_heap 000000018001ddac     libucrt:heap_handle.obj
 0002:00008dac       $unwind$?DloadReleaseSectionWriteAccess@@YAXXZ 000000018001ddac     DelayImp:delayhlp.obj
 0002:00008dac       $unwind$__dcrt_uninitialize_environments_nolock 000000018001ddac     libucrt:environment_initialization.obj
 0002:00008dac       $unwind$??$uninitialize_environment_internal@D@@YAXAEAPEAPEAD@Z 000000018001ddac     libucrt:environment_initialization.obj
 0002:00008dac       $unwind$??$uninitialize_environment_internal@_W@@YAXAEAPEAPEA_W@Z 000000018001ddac     libucrt:environment_initialization.obj
 0002:00008dac       $unwind$__acrt_initialize_command_line 000000018001ddac     libucrt:argv_data.obj
 0002:00008dac       $unwind$__vcrt_uninitialize_ptd 000000018001ddac     libvcruntime:per_thread_data.obj
 0002:00008dac       $unwind$_isatty            000000018001ddac     libucrt:isatty.obj
 0002:00008dac       $unwind$__scrt_acquire_startup_lock 000000018001ddac     LIBCMT:utility.obj
 0002:00008dac       $unwind$__doserrno         000000018001ddac     libucrt:errno.obj
 0002:00008dac       $unwind$__acrt_initialize_multibyte 000000018001ddac     libucrt:mbctype.obj
 0002:00008dac       $unwind$_errno             000000018001ddac     libucrt:errno.obj
 0002:00008dac       $unwind$__acrt_update_thread_multibyte_data 000000018001ddac     libucrt:mbctype.obj
 0002:00008dac       $unwind$?_Xlength@?$vector@UtagPROCESSENTRY32@@V?$allocator@UtagPROCESSENTRY32@@@std@@@std@@CAXXZ 000000018001ddac     process.obj
 0002:00008dac       $unwind$_fileno            000000018001ddac     libucrt:fileno.obj
 0002:00008dac       $unwind$__vcrt_initialize_ptd 000000018001ddac     libvcruntime:per_thread_data.obj
 0002:00008dac       $unwind$__report_rangecheckfailure 000000018001ddac     LIBCMT:gs_report.obj
 0002:00008dac       $unwind$__vcrt_freefls     000000018001ddac     libvcruntime:per_thread_data.obj
 0002:00008dac       $unwind$atexit             000000018001ddac     LIBCMT:utility.obj
 0002:00008dac       $unwind$__pctype_func      000000018001ddac     libucrt:ctype.obj
 0002:00008dac       $unwind$?_Xlength@?$vector@UtagMODULEENTRY32@@V?$allocator@UtagMODULEENTRY32@@@std@@@std@@CAXXZ 000000018001ddac     module.obj
 0002:00008dac       $unwind$?dllmain_crt_dispatch@@YAHQEAUHINSTANCE__@@KQEAX@Z 000000018001ddac     LIBCMT:dll_dllmain.obj
 0002:00008dac       $unwind$?_Xlength@?$vector@UArg@@V?$allocator@UArg@@@std@@@std@@CAXXZ 000000018001ddac     memoryjs.obj
 0002:00008dac       $unwind$__scrt_dllmain_before_initialize_c 000000018001ddac     LIBCMT:utility.obj
 0002:00008dac       $unwind$_stricmp           000000018001ddac     libucrt:stricmp.obj
 0002:00008dac       $unwind$_get_osfhandle     000000018001ddac     libucrt:osfinfo.obj
 0002:00008dac       $unwind$__scrt_dllmain_after_initialize_c 000000018001ddac     LIBCMT:utility.obj
 0002:00008dac       $unwind$__dcrt_terminate_console_output 000000018001ddac     libucrt:initcon.obj
 0002:00008dac       $unwind$_invoke_watson     000000018001ddac     libucrt:invalid_parameter.obj
 0002:00008dac       $unwind$__vcrt_thread_detach 000000018001ddac     libvcruntime:initialization.obj
 0002:00008dac       $unwind$?_Xlength@?$vector@EV?$allocator@E@std@@@std@@CAXXZ 000000018001ddac     memoryjs.obj
 0002:00008dac       $unwind$__scrt_dllmain_uninitialize_c 000000018001ddac     LIBCMT:utility.obj
 0002:00008dac       $unwind$_fgetc_nolock      000000018001ddac     libucrt:fgetc.obj
 0002:00008dac       $unwind$__vcrt_thread_attach 000000018001ddac     libvcruntime:initialization.obj
 0002:00008dac       $unwind$__acrt_release_locale_ref 000000018001ddac     libucrt:locale_refcounting.obj
 0002:00008dac       $unwind$__vcrt_uninitialize_critical 000000018001ddac     libvcruntime:initialization.obj
 0002:00008dac       $unwind$__acrt_initialize_ptd 000000018001ddac     libucrt:per_thread_data.obj
 0002:00008dac       $unwind$getchar            000000018001ddac     libucrt:fgetc.obj
 0002:00008dac       $unwind$__acrt_DownlevelLocaleNameToLCID 000000018001ddac     libucrt:lcidtoname_downlevel.obj
 0002:00008dac       $unwind$__acrt_uninitialize_ptd 000000018001ddac     libucrt:per_thread_data.obj
 0002:00008dac       $unwind$__vcrt_uninitialize 000000018001ddac     libvcruntime:initialization.obj
 0002:00008dac       $unwind$abort              000000018001ddac     libucrt:abort.obj
 0002:00008dac       $unwind$__GSHandlerCheck   000000018001ddac     LIBCMT:gshandler.obj
 0002:00008dac       $unwind$?_Xrange@?$vector@EV?$allocator@E@std@@@std@@CAXXZ 000000018001ddac     memoryjs.obj
 0002:00008dac       $unwind$?_Xlen@?$basic_string@DU?$char_traits@D@std@@V?$allocator@D@2@@std@@SAXXZ 000000018001ddac     memoryjs.obj
 0002:00008dac       $unwind$_msize_base        000000018001ddac     libucrt:msize.obj
 0002:00008dac       $unwind$__scrt_dllmain_uninitialize_critical 000000018001ddac     LIBCMT:utility.obj
 0002:00008dac       $unwind$?initialize_multibyte@@YAHXZ 000000018001ddac     libucrt:multibyte_initializer.obj
 0002:00008dac       $unwind$__vcrt_initialize  000000018001ddac     libvcruntime:initialization.obj
 0002:00008dac       $unwind$?_Xlength@?$vector@DV?$allocator@D@std@@@std@@CAXXZ 000000018001ddac     memoryjs.obj
 0002:00008dac       $unwind$?_Xlength@?$vector@PEAXV?$allocator@PEAX@std@@@std@@CAXXZ 000000018001ddac     memoryjs.obj
 0002:00008dac       $unwind$__scrt_dllmain_crt_thread_attach 000000018001ddac     LIBCMT:utility.obj
 0002:00008dac       $unwind$__scrt_initialize_default_local_stdio_options 000000018001ddac     LIBCMT:default_local_stdio_options.obj
 0002:00008dac       $unwind$_statfp            000000018001ddac     libucrt:fpctrl.obj
 0002:00008dac       $unwind$__acrt_uninitialize 000000018001ddac     libucrt:initialization.obj
 0002:00008dac       $unwind$__acrt_uninitialize_critical 000000018001ddac     libucrt:initialization.obj
 0002:00008dac       $unwind$uninitialize_allocated_io_buffers 000000018001ddac     libucrt:initialization.obj
 0002:00008dac       $unwind$__scrt_dllmain_crt_thread_detach 000000018001ddac     LIBCMT:utility.obj
 0002:00008dac       $unwind$__acrt_thread_attach 000000018001ddac     libucrt:initialization.obj
 0002:00008dac       $unwind$_set_errno_from_matherr 000000018001ddac     libucrt:fpexcept.obj
 0002:00008dac       $unwind$__acrt_thread_detach 000000018001ddac     libucrt:initialization.obj
 0002:00008dac       $unwind$initialize_c       000000018001ddac     libucrt:initialization.obj
 0002:00008dac       $unwind$uninitialize_environment 000000018001ddac     libucrt:initialization.obj
 0002:00008db4       $unwind$??$call@H@functions@@YA?AUCall@@PEAXV?$vector@UArg@@V?$allocator@UArg@@@std@@@std@@W4Type@@_KPEAPEAD@Z 000000018001ddb4     memoryjs.obj
 0002:00008ddc       $unwind$??$_Emplace_reallocate@AEBQEAX@?$vector@PEAXV?$allocator@PEAX@std@@@std@@QEAAPEAPEAXQEAPEAXAEBQEAX@Z 000000018001dddc     memoryjs.obj
 0002:00008dec       $chain$3$??$_Emplace_reallocate@AEBQEAX@?$vector@PEAXV?$allocator@PEAX@std@@@std@@QEAAPEAPEAXQEAPEAXAEBQEAX@Z 000000018001ddec     memoryjs.obj
 0002:00008e0c       $chain$5$??$_Emplace_reallocate@AEBQEAX@?$vector@PEAXV?$allocator@PEAX@std@@@std@@QEAAPEAPEAXQEAPEAXAEBQEAX@Z 000000018001de0c     memoryjs.obj
 0002:00008e2c       $chain$6$??$_Emplace_reallocate@AEBQEAX@?$vector@PEAXV?$allocator@PEAX@std@@@std@@QEAAPEAPEAXQEAPEAXAEBQEAX@Z 000000018001de2c     memoryjs.obj
 0002:00008e3c       $unwind$??$_Emplace_reallocate@E@?$vector@EV?$allocator@E@std@@@std@@QEAAPEAEQEAE$$QEAE@Z 000000018001de3c     memoryjs.obj
 0002:00008e3c       $unwind$??$_Emplace_reallocate@AEBE@?$vector@EV?$allocator@E@std@@@std@@QEAAPEAEQEAEAEBE@Z 000000018001de3c     memoryjs.obj
 0002:00008e3c       $unwind$??$_Emplace_reallocate@AEBD@?$vector@DV?$allocator@D@std@@@std@@QEAAPEADQEADAEBD@Z 000000018001de3c     memoryjs.obj
 0002:00008e4c       $chain$2$??$_Emplace_reallocate@E@?$vector@EV?$allocator@E@std@@@std@@QEAAPEAEQEAE$$QEAE@Z 000000018001de4c     memoryjs.obj
 0002:00008e4c       $chain$2$??$_Emplace_reallocate@AEBE@?$vector@EV?$allocator@E@std@@@std@@QEAAPEAEQEAEAEBE@Z 000000018001de4c     memoryjs.obj
 0002:00008e4c       $chain$2$??$_Emplace_reallocate@AEBD@?$vector@DV?$allocator@D@std@@@std@@QEAAPEADQEADAEBD@Z 000000018001de4c     memoryjs.obj
 0002:00008e68       $chain$4$??$_Emplace_reallocate@E@?$vector@EV?$allocator@E@std@@@std@@QEAAPEAEQEAE$$QEAE@Z 000000018001de68     memoryjs.obj
 0002:00008e68       $chain$4$??$_Emplace_reallocate@AEBD@?$vector@DV?$allocator@D@std@@@std@@QEAAPEADQEADAEBD@Z 000000018001de68     memoryjs.obj
 0002:00008e68       $chain$4$??$_Emplace_reallocate@AEBE@?$vector@EV?$allocator@E@std@@@std@@QEAAPEAEQEAEAEBE@Z 000000018001de68     memoryjs.obj
 0002:00008e84       $chain$5$??$_Emplace_reallocate@AEBD@?$vector@DV?$allocator@D@std@@@std@@QEAAPEADQEADAEBD@Z 000000018001de84     memoryjs.obj
 0002:00008e84       $chain$5$??$_Emplace_reallocate@AEBE@?$vector@EV?$allocator@E@std@@@std@@QEAAPEAEQEAEAEBE@Z 000000018001de84     memoryjs.obj
 0002:00008e84       $chain$5$??$_Emplace_reallocate@E@?$vector@EV?$allocator@E@std@@@std@@QEAAPEAEQEAE$$QEAE@Z 000000018001de84     memoryjs.obj
 0002:00008e94       $unwind$??$_Emplace_reallocate@UArg@@@?$vector@UArg@@V?$allocator@UArg@@@std@@@std@@QEAAPEAUArg@@QEAU2@$$QEAU2@@Z 000000018001de94     memoryjs.obj
 0002:00008ea4       $chain$2$??$_Emplace_reallocate@UArg@@@?$vector@UArg@@V?$allocator@UArg@@@std@@@std@@QEAAPEAUArg@@QEAU2@$$QEAU2@@Z 000000018001dea4     memoryjs.obj
 0002:00008ec0       $chain$4$??$_Emplace_reallocate@UArg@@@?$vector@UArg@@V?$allocator@UArg@@@std@@@std@@QEAAPEAUArg@@QEAU2@$$QEAU2@@Z 000000018001dec0     memoryjs.obj
 0002:00008edc       $chain$5$??$_Emplace_reallocate@UArg@@@?$vector@UArg@@V?$allocator@UArg@@@std@@@std@@QEAAPEAUArg@@QEAU2@$$QEAU2@@Z 000000018001dedc     memoryjs.obj
 0002:00008eec       $unwind$??$_Insert_range@PEAE@?$vector@EV?$allocator@E@std@@@std@@AEAAXV?$_Vector_const_iterator@V?$_Vector_val@U?$_Simple_types@E@std@@@std@@@1@PEAE1Uforward_iterator_tag@1@@Z 000000018001deec     memoryjs.obj
 0002:00008efc       $chain$1$??$_Insert_range@PEAE@?$vector@EV?$allocator@E@std@@@std@@AEAAXV?$_Vector_const_iterator@V?$_Vector_val@U?$_Simple_types@E@std@@@std@@@1@PEAE1Uforward_iterator_tag@1@@Z 000000018001defc     memoryjs.obj
 0002:00008f14       $chain$2$??$_Insert_range@PEAE@?$vector@EV?$allocator@E@std@@@std@@AEAAXV?$_Vector_const_iterator@V?$_Vector_val@U?$_Simple_types@E@std@@@std@@@1@PEAE1Uforward_iterator_tag@1@@Z 000000018001df14     memoryjs.obj
 0002:00008f28       $chain$3$??$_Insert_range@PEAE@?$vector@EV?$allocator@E@std@@@std@@AEAAXV?$_Vector_const_iterator@V?$_Vector_val@U?$_Simple_types@E@std@@@std@@@1@PEAE1Uforward_iterator_tag@1@@Z 000000018001df28     memoryjs.obj
 0002:00008f38       $chain$4$??$_Insert_range@PEAE@?$vector@EV?$allocator@E@std@@@std@@AEAAXV?$_Vector_const_iterator@V?$_Vector_val@U?$_Simple_types@E@std@@@std@@@1@PEAE1Uforward_iterator_tag@1@@Z 000000018001df38     memoryjs.obj
 0002:00008f48       $chain$5$??$_Insert_range@PEAE@?$vector@EV?$allocator@E@std@@@std@@AEAAXV?$_Vector_const_iterator@V?$_Vector_val@U?$_Simple_types@E@std@@@std@@@1@PEAE1Uforward_iterator_tag@1@@Z 000000018001df48     memoryjs.obj
 0002:00008f60       $chain$6$??$_Insert_range@PEAE@?$vector@EV?$allocator@E@std@@@std@@AEAAXV?$_Vector_const_iterator@V?$_Vector_val@U?$_Simple_types@E@std@@@std@@@1@PEAE1Uforward_iterator_tag@1@@Z 000000018001df60     memoryjs.obj
 0002:00008f7c       $unwind$?getProcesses@process@@QEAA?AV?$vector@UtagPROCESSENTRY32@@V?$allocator@UtagPROCESSENTRY32@@@std@@@std@@PEAPEAD@Z 000000018001df7c     process.obj
 0002:00008f98       $unwind$??$_Emplace_reallocate@AEBUtagMODULEENTRY32@@@?$vector@UtagMODULEENTRY32@@V?$allocator@UtagMODULEENTRY32@@@std@@@std@@QEAAPEAUtagMODULEENTRY32@@QEAU2@AEBU2@@Z 000000018001df98     module.obj
 0002:00008f98       $unwind$??$_Emplace_reallocate@AEBUtagPROCESSENTRY32@@@?$vector@UtagPROCESSENTRY32@@V?$allocator@UtagPROCESSENTRY32@@@std@@@std@@QEAAPEAUtagPROCESSENTRY32@@QEAU2@AEBU2@@Z 000000018001df98     process.obj
 0002:00008fa8       $chain$2$??$_Emplace_reallocate@AEBUtagPROCESSENTRY32@@@?$vector@UtagPROCESSENTRY32@@V?$allocator@UtagPROCESSENTRY32@@@std@@@std@@QEAAPEAUtagPROCESSENTRY32@@QEAU2@AEBU2@@Z 000000018001dfa8     process.obj
 0002:00008fc4       $chain$4$??$_Emplace_reallocate@AEBUtagPROCESSENTRY32@@@?$vector@UtagPROCESSENTRY32@@V?$allocator@UtagPROCESSENTRY32@@@std@@@std@@QEAAPEAUtagPROCESSENTRY32@@QEAU2@AEBU2@@Z 000000018001dfc4     process.obj
 0002:00008fe0       $chain$5$??$_Emplace_reallocate@AEBUtagPROCESSENTRY32@@@?$vector@UtagPROCESSENTRY32@@V?$allocator@UtagPROCESSENTRY32@@@std@@@std@@QEAAPEAUtagPROCESSENTRY32@@QEAU2@AEBU2@@Z 000000018001dfe0     process.obj
 0002:00008ff0       $unwind$?findModule@module@@QEAA?AUtagMODULEENTRY32@@PEBDKPEAPEAD@Z 000000018001dff0     module.obj
 0002:00009008       $unwind$?getModules@module@@QEAA?AV?$vector@UtagMODULEENTRY32@@V?$allocator@UtagMODULEENTRY32@@@std@@@std@@KPEAPEAD@Z 000000018001e008     module.obj
 0002:00009020       $chain$2$??$_Emplace_reallocate@AEBUtagMODULEENTRY32@@@?$vector@UtagMODULEENTRY32@@V?$allocator@UtagMODULEENTRY32@@@std@@@std@@QEAAPEAUtagMODULEENTRY32@@QEAU2@AEBU2@@Z 000000018001e020     module.obj
 0002:0000903c       $chain$4$??$_Emplace_reallocate@AEBUtagMODULEENTRY32@@@?$vector@UtagMODULEENTRY32@@V?$allocator@UtagMODULEENTRY32@@@std@@@std@@QEAAPEAUtagMODULEENTRY32@@QEAU2@AEBU2@@Z 000000018001e03c     module.obj
 0002:00009058       $chain$5$??$_Emplace_reallocate@AEBUtagMODULEENTRY32@@@?$vector@UtagMODULEENTRY32@@V?$allocator@UtagMODULEENTRY32@@@std@@@std@@QEAAPEAUtagMODULEENTRY32@@QEAU2@AEBU2@@Z 000000018001e058     module.obj
 0002:00009068       $unwind$?findPattern@pattern@@QEAA_KPEAXUtagMODULEENTRY32@@PEBDF_K3@Z 000000018001e068     pattern.obj
 0002:0000907c       $chain$0$?findPattern@pattern@@QEAA_KPEAXUtagMODULEENTRY32@@PEBDF_K3@Z 000000018001e07c     pattern.obj
 0002:00009090       $chain$1$?findPattern@pattern@@QEAA_KPEAXUtagMODULEENTRY32@@PEBDF_K3@Z 000000018001e090     pattern.obj
 0002:000090a0       xdata                      000000018001e0a0     node:node.exe
 0002:000090a8       $unwind$?DloadGetSRWLockFunctionPointers@@YAEXZ 000000018001e0a8     DelayImp:delayhlp.obj
 0002:000090a8       $unwind$_close_nolock      000000018001e0a8     libucrt:close.obj
 0002:000090a8       $unwind$_updatetlocinfoEx_nolock 000000018001e0a8     libucrt:locale_refcounting.obj
 0002:000090a8       $unwind$??_Gbad_array_new_length@std@@UEAAPEAXI@Z 000000018001e0a8     LIBCMT:throw_bad_alloc.obj
 0002:000090a8       $unwind$__acrt_getptd_noexit 000000018001e0a8     libucrt:per_thread_data.obj
 0002:000090a8       $unwind$??_Gexception@std@@UEAAPEAXI@Z 000000018001e0a8     libcpmt:xthrow.obj
 0002:000090a8       $unwind$_RTC_Initialize    000000018001e0a8     LIBCMT:initsect.obj
 0002:000090a8       $unwind$??_Gbad_alloc@std@@UEAAPEAXI@Z 000000018001e0a8     libcpmt:xthrow.obj
 0002:000090a8       $unwind$__vcrt_FlsSetValue 000000018001e0a8     libvcruntime:winapi_downlevel.obj
 0002:000090a8       $unwind$_initterm_e        000000018001e0a8     libucrt:initterm.obj
 0002:000090a8       $unwind$_RTC_Terminate     000000018001e0a8     LIBCMT:initsect.obj
 0002:000090a8       $unwind$__acrt_uninitialize_lowio 000000018001e0a8     libucrt:ioinit.obj
 0002:000090a8       $unwind$??0_LocaleUpdate@@QEAA@QEAU__crt_locale_pointers@@@Z 000000018001e0a8     libucrt:stricmp.obj
 0002:000090a8       $unwind$?replace_current_thread_locale_nolock@@YAXQEAU__acrt_ptd@@QEAU__crt_locale_data@@@Z 000000018001e0a8     libucrt:per_thread_data.obj
 0002:000090a8       $unwind$_realloc_base      000000018001e0a8     libucrt:realloc_base.obj
 0002:000090a8       $unwind$_fclose_nolock     000000018001e0a8     libucrt:fclose.obj
 0002:000090a8       $unwind$??_Glogic_error@std@@UEAAPEAXI@Z 000000018001e0a8     libcpmt:xthrow.obj
 0002:000090a8       $unwind$__acrt_LocaleNameToLCID 000000018001e0a8     libucrt:winapi_thunks.obj
 0002:000090a8       $unwind$??_Gout_of_range@std@@UEAAPEAXI@Z 000000018001e0a8     libcpmt:xthrow.obj
 0002:000090a8       $unwind$__acrt_execute_uninitializers 000000018001e0a8     libucrt:shared_initialization.obj
 0002:000090a8       $unwind$strncpy_s          000000018001e0a8     libucrt:strncpy_s.obj
 0002:000090a8       $unwind$__acrt_errno_map_os_error 000000018001e0a8     libucrt:errno.obj
 0002:000090a8       $unwind$??$common_initialize_environment_nolock@D@@YAHXZ 000000018001e0a8     libucrt:environment_initialization.obj
 0002:000090a8       $unwind$__acrt_getptd      000000018001e0a8     libucrt:per_thread_data.obj
 0002:000090a8       $unwind$??_Glength_error@std@@UEAAPEAXI@Z 000000018001e0a8     libcpmt:xthrow.obj
 0002:000090a8       $unwind$__acrt_FlsSetValue 000000018001e0a8     libucrt:winapi_thunks.obj
 0002:000090b4       $unwind$?__scrt_throw_std_bad_array_new_length@@YAXXZ 000000018001e0b4     LIBCMT:throw_bad_alloc.obj
 0002:000090b4       $unwind$_raise_exc         000000018001e0b4     libucrt:fpexcept.obj
 0002:000090b4       $unwind$?_Xout_of_range@std@@YAXPEBD@Z 000000018001e0b4     libcpmt:xthrow.obj
 0002:000090b4       $unwind$?__scrt_throw_std_bad_alloc@@YAXXZ 000000018001e0b4     LIBCMT:throw_bad_alloc.obj
 0002:000090b4       $unwind$?_Xlength_error@std@@YAXPEBD@Z 000000018001e0b4     libcpmt:xthrow.obj
 0002:000090bc       $unwind$??0length_error@std@@QEAA@PEBD@Z 000000018001e0bc     libcpmt:xthrow.obj
 0002:000090bc       $unwind$??0out_of_range@std@@QEAA@PEBD@Z 000000018001e0bc     libcpmt:xthrow.obj
 0002:000090c8       $xdatasym                  000000018001e0c8     LIBCMT:amdsecgs.obj
 0002:000090cc       $unwind$__scrt_is_nonwritable_in_current_image 000000018001e0cc     LIBCMT:utility.obj
 0002:000090ec       $unwind$__scrt_is_nonwritable_in_current_image$filt$0 000000018001e0ec     LIBCMT:utility.obj
 0002:000090f4       $unwind$__scrt_dllmain_exception_filter 000000018001e0f4     LIBCMT:utility.obj
 0002:000090f4       $unwind$_initterm          000000018001e0f4     libucrt:initterm.obj
 0002:000090f4       $unwind$?setSBCS@@YAXPEAU__crt_multibyte_data@@@Z 000000018001e0f4     libucrt:mbctype.obj
 0002:000090f4       $unwind$__acrt_lowio_create_handle_array 000000018001e0f4     libucrt:osfinfo.obj
 0002:000090f4       $unwind$_recalloc_base     000000018001e0f4     libucrt:recalloc.obj
 0002:000090f4       $unwind$_seh_filter_exe    000000018001e0f4     libucrt:exception_filter.obj
 0002:000090f4       $unwind$__acrt_free_locale 000000018001e0f4     libucrt:locale_refcounting.obj
 0002:00009108       $unwind$?dllmain_crt_process_attach@@YAHQEAUHINSTANCE__@@QEAX@Z 000000018001e108     LIBCMT:dll_dllmain.obj
 0002:00009144       $unwind$__acrt_lowio_ensure_fh_exists$fin$0 000000018001e144     libucrt:osfinfo.obj
 0002:00009144       $unwind$?fin$0@?0???$?RV<lambda_842d9ff0dc9ef11c61343bbaebe7f885>@@AEAV<lambda_c5860995281e5c4ce005b3de8f5874ee>@@V<lambda_d90129c13df834fdcbf8d2b88dafcf2d>@@@?$__crt_seh_guarded_call@X@@QEAAX$$QEAV<lambda_842d9ff0dc9ef11c61343bbaebe7f885>@@AEAV<lambda_c5860995281e5c4ce005b3de8f5874ee>@@$$QEAV<lambda_d90129c13df834fdcbf8d2b88dafcf2d>@@@Z@4HA 000000018001e144     libucrt:fflush.obj
 0002:00009144       $unwind$?fin$0@?0???$?RV<lambda_0ae27a3a962d80f24befdcbee591983d>@@AEAV<lambda_8d0ee55de4b1038c4002e0adecdf1839>@@V<lambda_dc504788e8f1664fe9b84e20bfb512f2>@@@?$__crt_seh_guarded_call@X@@QEAAX$$QEAV<lambda_0ae27a3a962d80f24befdcbee591983d>@@AEAV<lambda_8d0ee55de4b1038c4002e0adecdf1839>@@$$QEAV<lambda_dc504788e8f1664fe9b84e20bfb512f2>@@@Z@4HA 000000018001e144     libucrt:per_thread_data.obj
 0002:00009144       $unwind$_query_new_handler$fin$0 000000018001e144     libucrt:new_handler.obj
 0002:00009144       $unwind$__acrt_initialize_lowio$fin$0 000000018001e144     libucrt:ioinit.obj
 0002:00009144       $unwind$?fin$0@?0???$?RV<lambda_410d79af7f07d98d83a3f525b3859a53>@@AEAV<lambda_3e16ef9562a7dcce91392c22ab16ea36>@@V<lambda_38119f0e861e05405d8a144b9b982f0a>@@@?$__crt_seh_guarded_call@X@@QEAAX$$QEAV<lambda_410d79af7f07d98d83a3f525b3859a53>@@AEAV<lambda_3e16ef9562a7dcce91392c22ab16ea36>@@$$QEAV<lambda_38119f0e861e05405d8a144b9b982f0a>@@@Z@4HA 000000018001e144     libucrt:wsetlocale.obj
 0002:00009144       $unwind$?fin$0@?0???$?RV<lambda_a37b2b86f63e897a80ea819b0eb08c01>@@AEAV<lambda_38ce7e780aa69e748d6df282ebc68efe>@@V<lambda_99fb1378e971ab6e7edea83e3a7a83a2>@@@?$__crt_seh_guarded_call@H@@QEAAH$$QEAV<lambda_a37b2b86f63e897a80ea819b0eb08c01>@@AEAV<lambda_38ce7e780aa69e748d6df282ebc68efe>@@$$QEAV<lambda_99fb1378e971ab6e7edea83e3a7a83a2>@@@Z@4HA 000000018001e144     libucrt:commit.obj
 0002:00009144       $unwind$_read$fin$0        000000018001e144     libucrt:read.obj
 0002:00009144       $unwind$__acrt_update_thread_locale_data$fin$0 000000018001e144     libucrt:locale_refcounting.obj
 0002:00009144       $unwind$?fin$0@?0???$?RV<lambda_886d6c58226a84441f68b9f2b8217b83>@@AEAV<lambda_ab61a845afdef5b7c387490eaf3616ee>@@V<lambda_f7f22ab5edc0698d5f6905b0d3f44752>@@@?$__crt_seh_guarded_call@X@@QEAAX$$QEAV<lambda_886d6c58226a84441f68b9f2b8217b83>@@AEAV<lambda_ab61a845afdef5b7c387490eaf3616ee>@@$$QEAV<lambda_f7f22ab5edc0698d5f6905b0d3f44752>@@@Z@4HA 000000018001e144     libucrt:fflush.obj
 0002:00009144       $unwind$__DestructExceptionObject$filt$0 000000018001e144     libvcruntime:ehhelpers.obj
 0002:00009144       $unwind$?fin$0@?0??update_thread_multibyte_data_internal@@YAPEAU__crt_multibyte_data@@QEAU__acrt_ptd@@QEAPEAU1@@Z@4HA 000000018001e144     libucrt:mbctype.obj
 0002:00009144       $unwind$_ctrlfp$filt$0     000000018001e144     libucrt:fpctrl.obj
 0002:00009144       $unwind$?fin$0@?0???$?RV<lambda_2d41944a1d46af3157314b8a01080d33>@@AEAV<lambda_8f455de75cd7d7f24b4096f044d8b9e6>@@V<lambda_aa500f224e6afead328df44964fe2772>@@@?$__crt_seh_guarded_call@X@@QEAAX$$QEAV<lambda_2d41944a1d46af3157314b8a01080d33>@@AEAV<lambda_8f455de75cd7d7f24b4096f044d8b9e6>@@$$QEAV<lambda_aa500f224e6afead328df44964fe2772>@@@Z@4HA 000000018001e144     libucrt:per_thread_data.obj
 0002:00009144       $unwind$?fin$0@?0??dllmain_crt_process_attach@@YAHQEAUHINSTANCE__@@QEAX@Z@4HA 000000018001e144     LIBCMT:dll_dllmain.obj
 0002:00009144       $unwind$?fin$0@?0???$?RV<lambda_efdfa57d1f175319df784efa44bb7b81>@@AEAV<lambda_5f0a4c1567f8adc6734073e5d1e1b35c>@@V<lambda_2e8a7d3640ea6ccb4c2413664c2db6fd>@@@?$__crt_seh_guarded_call@X@@QEAAX$$QEAV<lambda_efdfa57d1f175319df784efa44bb7b81>@@AEAV<lambda_5f0a4c1567f8adc6734073e5d1e1b35c>@@$$QEAV<lambda_2e8a7d3640ea6ccb4c2413664c2db6fd>@@@Z@4HA 000000018001e144     libucrt:mbctype.obj
 0002:00009144       $unwind$?fin$0@?0???$?RV<lambda_7777bce6b2f8c936911f934f8298dc43>@@AEAV<lambda_f03950bc5685219e0bcd2087efbe011e>@@V<lambda_3883c3dff614d5e0c5f61bb1ac94921c>@@@?$__crt_seh_guarded_call@H@@QEAAH$$QEAV<lambda_7777bce6b2f8c936911f934f8298dc43>@@AEAV<lambda_f03950bc5685219e0bcd2087efbe011e>@@$$QEAV<lambda_3883c3dff614d5e0c5f61bb1ac94921c>@@@Z@4HA 000000018001e144     libucrt:onexit.obj
 0002:00009144       $unwind$?fin$0@?0???$?RV<lambda_f2e299630e499de9f9a165e60fcd3db5>@@AEAV<lambda_2ae9d31cdba2644fcbeaf08da7c24588>@@V<lambda_40d01ff24d0e7b3814fdbdcee8eab3c7>@@@?$__crt_seh_guarded_call@X@@QEAAX$$QEAV<lambda_f2e299630e499de9f9a165e60fcd3db5>@@AEAV<lambda_2ae9d31cdba2644fcbeaf08da7c24588>@@$$QEAV<lambda_40d01ff24d0e7b3814fdbdcee8eab3c7>@@@Z@4HA 000000018001e144     libucrt:per_thread_data.obj
 0002:00009144       $unwind$?fin$0@?0???$?RV<lambda_450d765d439847d4c735a33c368b5fc0>@@AEAV<lambda_44731a7d0e6d81c3e6aa82d741081786>@@V<lambda_601a2a7da3b7a96e9554ac7215c4b07c>@@@?$__crt_seh_guarded_call@P6AXH@Z@@QEAAP6AXH@Z$$QEAV<lambda_450d765d439847d4c735a33c368b5fc0>@@AEAV<lambda_44731a7d0e6d81c3e6aa82d741081786>@@$$QEAV<lambda_601a2a7da3b7a96e9554ac7215c4b07c>@@@Z@4HA 000000018001e144     libucrt:signal.obj
 0002:00009144       $unwind$?filt$0@?0???R<lambda_6e4b09c48022b2350581041d5f6b0c4c>@@QEBA@XZ@4HA 000000018001e144     libucrt:exit.obj
 0002:00009144       $unwind$?fin$0@?0??dllmain_crt_process_detach@@YAH_N@Z@4HA 000000018001e144     LIBCMT:dll_dllmain.obj
 0002:00009144       $unwind$_write$fin$0       000000018001e144     libucrt:write.obj
 0002:00009144       $unwind$raise$fin$0        000000018001e144     libucrt:signal.obj
 0002:00009144       $unwind$?fin$0@?0???$?RV<lambda_d80eeec6fff315bfe5c115232f3240e3>@@AEAV<lambda_6e4b09c48022b2350581041d5f6b0c4c>@@V<lambda_2358e3775559c9db80273638284d5e45>@@@?$__crt_seh_guarded_call@X@@QEAAX$$QEAV<lambda_d80eeec6fff315bfe5c115232f3240e3>@@AEAV<lambda_6e4b09c48022b2350581041d5f6b0c4c>@@$$QEAV<lambda_2358e3775559c9db80273638284d5e45>@@@Z@4HA 000000018001e144     libucrt:exit.obj
 0002:00009144       $unwind$_IsNonwritableInCurrentImage$filt$0 000000018001e144     LIBCMT:pesect.obj
 0002:00009144       $unwind$?fin$0@?0???$?RV<lambda_aa87e3671a710a21b5dc78c0bdf72e11>@@AEAV<lambda_92619d2358a28f41a33ba319515a20b9>@@V<lambda_6992ecaafeb10aed2b74cb1fae11a551>@@@?$__crt_seh_guarded_call@X@@QEAAX$$QEAV<lambda_aa87e3671a710a21b5dc78c0bdf72e11>@@AEAV<lambda_92619d2358a28f41a33ba319515a20b9>@@$$QEAV<lambda_6992ecaafeb10aed2b74cb1fae11a551>@@@Z@4HA 000000018001e144     libucrt:per_thread_data.obj
 0002:00009144       $unwind$_fcloseall$fin$0   000000018001e144     libucrt:closeall.obj
 0002:00009144       $unwind$fclose$fin$0       000000018001e144     libucrt:fclose.obj
 0002:00009144       $unwind$?fin$0@?0???$?RV<lambda_751a882b2c74d4b022dec766aa51a29a>@@AEAV<lambda_628dfdc04ba53c8bfc02c9951375f3f5>@@V<lambda_f6c7be5f7998530c34de24c7437d6b54>@@@?$__crt_seh_guarded_call@H@@QEAAH$$QEAV<lambda_751a882b2c74d4b022dec766aa51a29a>@@AEAV<lambda_628dfdc04ba53c8bfc02c9951375f3f5>@@$$QEAV<lambda_f6c7be5f7998530c34de24c7437d6b54>@@@Z@4HA 000000018001e144     libucrt:close.obj
 0002:00009144       $unwind$?fin$0@?0???$?RV<lambda_8369fcb7c4df1e85de37618bd2b85f07>@@AEAV<lambda_a10e4b102d4a2c3aac6f4f48bbdf488f>@@V<lambda_5b7707bd6d7a0c4713179f36c7fd995d>@@@?$__crt_seh_guarded_call@H@@QEAAH$$QEAV<lambda_8369fcb7c4df1e85de37618bd2b85f07>@@AEAV<lambda_a10e4b102d4a2c3aac6f4f48bbdf488f>@@$$QEAV<lambda_5b7707bd6d7a0c4713179f36c7fd995d>@@@Z@4HA 000000018001e144     libucrt:onexit.obj
 0002:00009144       $unwind$fgetc$fin$0        000000018001e144     libucrt:fgetc.obj
 0002:0000914c       $unwind$?dllmain_crt_process_detach@@YAH_N@Z 000000018001e14c     LIBCMT:dll_dllmain.obj
 0002:00009184       $unwind$?dllmain_dispatch@@YAHQEAUHINSTANCE__@@KQEAX@Z 000000018001e184     LIBCMT:dll_dllmain.obj
 0002:000091ac       $unwind$?filt$0@?0??dllmain_dispatch@@YAHQEAUHINSTANCE__@@KQEAX@Z@4HA 000000018001e1ac     LIBCMT:dll_dllmain.obj
 0002:000091b4       $unwind$__vcrt_getptd_noexit 000000018001e1b4     libvcruntime:per_thread_data.obj
 0002:000091b4       $unwind$__acrt_execute_initializers 000000018001e1b4     libucrt:shared_initialization.obj
 0002:000091b4       $unwind$_DllMainCRTStartup 000000018001e1b4     LIBCMT:dll_dllmain.obj
 0002:000091b4       $unwind$_exception_enabled 000000018001e1b4     libucrt:libm_error.obj
 0002:000091b4       $unwind$__acrt_InitializeCriticalSectionEx 000000018001e1b4     libucrt:winapi_thunks.obj
 0002:000091b4       $unwind$__vcrt_InitializeCriticalSectionEx 000000018001e1b4     libvcruntime:winapi_downlevel.obj
 0002:000091b4       $unwind$??$common_lseek_nolock@_J@@YA_JH_JH@Z 000000018001e1b4     libucrt:lseek.obj
 0002:000091b4       $unwind$?free_crt_array_internal@@YAXQEAPEBX_K@Z 000000018001e1b4     libucrt:inittime.obj
 0002:000091b4       $unwind$__acrt_stdio_flush_nolock 000000018001e1b4     libucrt:fflush.obj
 0002:000091c4       $unwind$__report_securityfailure 000000018001e1c4     LIBCMT:gs_report.obj
 0002:000091cc       $unwind$__report_gsfailure 000000018001e1cc     LIBCMT:gs_report.obj
 0002:000091d4       $unwind$capture_current_context 000000018001e1d4     LIBCMT:gs_report.obj
 0002:000091e0       $unwind$capture_previous_context 000000018001e1e0     LIBCMT:gs_report.obj
 0002:000091ec       $unwind$__isa_available_init 000000018001e1ec     LIBCMT:cpu_disp.obj
 0002:00009200       $unwind$__scrt_fastfail    000000018001e200     LIBCMT:utility_desktop.obj
 0002:00009210       $unwind$__security_init_cookie 000000018001e210     LIBCMT:gs_support.obj
 0002:00009220       $xdatasym                  000000018001e220     LIBCMT:guard_dispatch.obj
 0002:00009224       $unwind$__acrt_stdio_refill_and_read_narrow_nolock 000000018001e224     libucrt:_filbuf.obj
 0002:00009224       $unwind$_free_osfhnd       000000018001e224     libucrt:osfinfo.obj
 0002:00009224       $unwind$__std_exception_copy 000000018001e224     libvcruntime:std_exception.obj
 0002:00009224       $unwind$?initialize_stdio_handles_nolock@@YAXXZ 000000018001e224     libucrt:ioinit.obj
 0002:00009238       $unwind$_CxxThrowException 000000018001e238     libvcruntime:throw.obj
 0002:00009248       $unwind$__C_specific_handler 000000018001e248     libvcruntime:riscchandler.obj
 0002:00009268       $xdatasym                  000000018001e268     libvcruntime:memset.obj
 0002:00009278       $unwind$__vcrt_initialize_winapi_thunks 000000018001e278     libvcruntime:winapi_downlevel.obj
 0002:00009278       $unwind$__acrt_initialize_winapi_thunks 000000018001e278     libucrt:winapi_thunks.obj
 0002:00009280       $unwind$__vcrt_uninitialize_winapi_thunks 000000018001e280     libvcruntime:winapi_downlevel.obj
 0002:00009288       $unwind$?try_get_function@@YAPEAXW4function_id@?A0xbfd18cd1@@QEBDQEBW4module_id@2@2@Z 000000018001e288     libvcruntime:winapi_downlevel.obj
 0002:00009288       $unwind$?try_get_function@@YAPEAXW4function_id@?A0x391cf84c@@QEBDQEBW4module_id@2@2@Z 000000018001e288     libucrt:winapi_thunks.obj
 0002:00009288       $unwind$??R<lambda_f03950bc5685219e0bcd2087efbe011e>@@QEBAHXZ 000000018001e288     libucrt:onexit.obj
 0002:000092a8       $xdatasym                  000000018001e2a8     libvcruntime:notify.obj
 0002:000092b4       $unwind$__DestructExceptionObject 000000018001e2b4     libvcruntime:ehhelpers.obj
 0002:000092d8       $xdatasym                  000000018001e2d8     libvcruntime:memcpy.obj
 0002:000092e8       $xdatasym                  000000018001e2e8     libvcruntime:handlers.obj
 0002:000092f8       $unwind$fgetc              000000018001e2f8     libucrt:fgetc.obj
 0002:0000932c       $unwind$_invalid_parameter_noinfo_noreturn 000000018001e32c     libucrt:invalid_parameter.obj
 0002:0000932c       $unwind$_log10_special     000000018001e32c     libucrt:log_special.obj
 0002:0000932c       $unwind$_invalid_parameter_noinfo 000000018001e32c     libucrt:invalid_parameter.obj
 0002:00009334       $unwind$__acrt_call_reportfault 000000018001e334     libucrt:invalid_parameter.obj
 0002:00009354       $unwind$_invalid_parameter 000000018001e354     libucrt:invalid_parameter.obj
 0002:00009368       $unwind$?x_ismbbtype_l@@YAHPEAU__crt_locale_pointers@@IHH@Z 000000018001e368     libucrt:ismbbyte.obj
 0002:00009368       $unwind$_stricmp_l         000000018001e368     libucrt:stricmp.obj
 0002:00009378       $unwind$_query_new_handler 000000018001e378     libucrt:new_handler.obj
 0002:00009398       $unwind$?common_exit@@YAXHW4_crt_exit_cleanup_mode@@W4_crt_exit_return_mode@@@Z 000000018001e398     libucrt:exit.obj
 0002:000093a4       $unwind$??R<lambda_6e4b09c48022b2350581041d5f6b0c4c>@@QEBA@XZ 000000018001e3a4     libucrt:exit.obj
 0002:000093c4       $unwind$??$?RV<lambda_d80eeec6fff315bfe5c115232f3240e3>@@AEAV<lambda_6e4b09c48022b2350581041d5f6b0c4c>@@V<lambda_2358e3775559c9db80273638284d5e45>@@@?$__crt_seh_guarded_call@X@@QEAAX$$QEAV<lambda_d80eeec6fff315bfe5c115232f3240e3>@@AEAV<lambda_6e4b09c48022b2350581041d5f6b0c4c>@@$$QEAV<lambda_2358e3775559c9db80273638284d5e45>@@@Z 000000018001e3c4     libucrt:exit.obj
 0002:000093e8       $unwind$_configure_narrow_argv 000000018001e3e8     libucrt:argv_parsing.obj
 0002:000093fc       $unwind$??R<lambda_a10e4b102d4a2c3aac6f4f48bbdf488f>@@QEBAHXZ 000000018001e3fc     libucrt:onexit.obj
 0002:000093fc       $unwind$??$parse_command_line@D@@YAXPEADPEAPEAD0PEA_K2@Z 000000018001e3fc     libucrt:argv_parsing.obj
 0002:00009418       $unwind$??$free_environment@D@@YAXQEAPEAD@Z 000000018001e418     libucrt:environment_initialization.obj
 0002:00009418       $unwind$??$free_environment@_W@@YAXQEAPEA_W@Z 000000018001e418     libucrt:environment_initialization.obj
 0002:00009424       $unwind$??$create_environment@D@@YAQEAPEADQEAD@Z 000000018001e424     libucrt:environment_initialization.obj
 0002:0000943c       $unwind$_register_onexit_function 000000018001e43c     libucrt:onexit.obj
 0002:00009444       $unwind$_execute_onexit_table 000000018001e444     libucrt:onexit.obj
 0002:0000944c       $unwind$??$?RV<lambda_8369fcb7c4df1e85de37618bd2b85f07>@@AEAV<lambda_a10e4b102d4a2c3aac6f4f48bbdf488f>@@V<lambda_5b7707bd6d7a0c4713179f36c7fd995d>@@@?$__crt_seh_guarded_call@H@@QEAAH$$QEAV<lambda_8369fcb7c4df1e85de37618bd2b85f07>@@AEAV<lambda_a10e4b102d4a2c3aac6f4f48bbdf488f>@@$$QEAV<lambda_5b7707bd6d7a0c4713179f36c7fd995d>@@@Z 000000018001e44c     libucrt:onexit.obj
 0002:00009470       $unwind$??$?RV<lambda_7777bce6b2f8c936911f934f8298dc43>@@AEAV<lambda_f03950bc5685219e0bcd2087efbe011e>@@V<lambda_3883c3dff614d5e0c5f61bb1ac94921c>@@@?$__crt_seh_guarded_call@H@@QEAAH$$QEAV<lambda_7777bce6b2f8c936911f934f8298dc43>@@AEAV<lambda_f03950bc5685219e0bcd2087efbe011e>@@$$QEAV<lambda_3883c3dff614d5e0c5f61bb1ac94921c>@@@Z 000000018001e470     libucrt:onexit.obj
 0002:00009494       $unwind$terminate          000000018001e494     libucrt:terminate.obj
 0002:000094b8       $xdatasym                  000000018001e4b8     libucrt:strncmp.obj
 0002:000094bc       $unwind$?destroy_fls@@YAXPEAX@Z 000000018001e4bc     libucrt:per_thread_data.obj
 0002:000094bc       $unwind$__acrt_locale_free_numeric 000000018001e4bc     libucrt:initnum.obj
 0002:000094bc       $unwind$__acrt_locale_free_lc_time_if_unreferenced 000000018001e4bc     libucrt:locale_refcounting.obj
 0002:000094bc       $unwind$_free_base         000000018001e4bc     libucrt:free_base.obj
 0002:000094c4       $unwind$__acrt_initialize_stdio 000000018001e4c4     libucrt:_file.obj
 0002:000094dc       $unwind$__acrt_initialize_lowio 000000018001e4dc     libucrt:ioinit.obj
 0002:000094fc       $unwind$?initialize_inherited_file_handles_nolock@@YAXXZ 000000018001e4fc     libucrt:ioinit.obj
 0002:00009518       $unwind$?construct_ptd_array@@YAXQEAU__acrt_ptd@@@Z 000000018001e518     libucrt:per_thread_data.obj
 0002:00009520       $unwind$?destroy_ptd_array@@YAXQEAU__acrt_ptd@@@Z 000000018001e520     libucrt:per_thread_data.obj
 0002:00009528       $unwind$??$?RV<lambda_0ae27a3a962d80f24befdcbee591983d>@@AEAV<lambda_8d0ee55de4b1038c4002e0adecdf1839>@@V<lambda_dc504788e8f1664fe9b84e20bfb512f2>@@@?$__crt_seh_guarded_call@X@@QEAAX$$QEAV<lambda_0ae27a3a962d80f24befdcbee591983d>@@AEAV<lambda_8d0ee55de4b1038c4002e0adecdf1839>@@$$QEAV<lambda_dc504788e8f1664fe9b84e20bfb512f2>@@@Z 000000018001e528     libucrt:per_thread_data.obj
 0002:0000954c       $unwind$??$?RV<lambda_aa87e3671a710a21b5dc78c0bdf72e11>@@AEAV<lambda_92619d2358a28f41a33ba319515a20b9>@@V<lambda_6992ecaafeb10aed2b74cb1fae11a551>@@@?$__crt_seh_guarded_call@X@@QEAAX$$QEAV<lambda_aa87e3671a710a21b5dc78c0bdf72e11>@@AEAV<lambda_92619d2358a28f41a33ba319515a20b9>@@$$QEAV<lambda_6992ecaafeb10aed2b74cb1fae11a551>@@@Z 000000018001e54c     libucrt:per_thread_data.obj
 0002:00009570       $unwind$??$?RV<lambda_f2e299630e499de9f9a165e60fcd3db5>@@AEAV<lambda_2ae9d31cdba2644fcbeaf08da7c24588>@@V<lambda_40d01ff24d0e7b3814fdbdcee8eab3c7>@@@?$__crt_seh_guarded_call@X@@QEAAX$$QEAV<lambda_f2e299630e499de9f9a165e60fcd3db5>@@AEAV<lambda_2ae9d31cdba2644fcbeaf08da7c24588>@@$$QEAV<lambda_40d01ff24d0e7b3814fdbdcee8eab3c7>@@@Z 000000018001e570     libucrt:per_thread_data.obj
 0002:00009594       $unwind$??$?RV<lambda_2d41944a1d46af3157314b8a01080d33>@@AEAV<lambda_8f455de75cd7d7f24b4096f044d8b9e6>@@V<lambda_aa500f224e6afead328df44964fe2772>@@@?$__crt_seh_guarded_call@X@@QEAAX$$QEAV<lambda_2d41944a1d46af3157314b8a01080d33>@@AEAV<lambda_8f455de75cd7d7f24b4096f044d8b9e6>@@$$QEAV<lambda_aa500f224e6afead328df44964fe2772>@@@Z 000000018001e594     libucrt:per_thread_data.obj
 0002:000095b8       $unwind$_tolower_l         000000018001e5b8     libucrt:tolower_toupper.obj
 0002:000095c8       $unwind$__acrt_uninitialize_locale 000000018001e5c8     libucrt:wsetlocale.obj
 0002:000095c8       $unwind$__acrt_get_sigabrt_handler 000000018001e5c8     libucrt:signal.obj
 0002:000095d0       $unwind$??$?RV<lambda_410d79af7f07d98d83a3f525b3859a53>@@AEAV<lambda_3e16ef9562a7dcce91392c22ab16ea36>@@V<lambda_38119f0e861e05405d8a144b9b982f0a>@@@?$__crt_seh_guarded_call@X@@QEAAX$$QEAV<lambda_410d79af7f07d98d83a3f525b3859a53>@@AEAV<lambda_3e16ef9562a7dcce91392c22ab16ea36>@@$$QEAV<lambda_38119f0e861e05405d8a144b9b982f0a>@@@Z 000000018001e5d0     libucrt:wsetlocale.obj
 0002:000095f8       $unwind$??$common_expand_argv_wildcards@D@@YAHQEAPEADQEAPEAPEAD@Z 000000018001e5f8     libucrt:argv_wildcards.obj
 0002:00009610       $unwind$??$copy_and_add_argument_to_buffer@D@@YAHQEBD0_KAEAV?$argument_list@D@?A0x5f5c8891@@@Z 000000018001e610     libucrt:argv_wildcards.obj
 0002:0000962c       $unwind$??$expand_argument_wildcards@D@@YAHQEAD0AEAV?$argument_list@D@?A0x5f5c8891@@@Z 000000018001e62c     libucrt:argv_wildcards.obj
 0002:0000964c       $unwind$_setmbcp_nolock    000000018001e64c     libucrt:mbctype.obj
 0002:0000966c       $unwind$?update_thread_multibyte_data_internal@@YAPEAU__crt_multibyte_data@@QEAU__acrt_ptd@@QEAPEAU1@@Z 000000018001e66c     libucrt:mbctype.obj
 0002:00009694       $unwind$?setmbcp_internal@@YAHH_NQEAU__acrt_ptd@@QEAPEAU__crt_multibyte_data@@@Z 000000018001e694     libucrt:mbctype.obj
 0002:000096a4       $unwind$?setSBUpLow@@YAXPEAU__crt_multibyte_data@@@Z 000000018001e6a4     libucrt:mbctype.obj
 0002:000096c0       $unwind$??$?RV<lambda_efdfa57d1f175319df784efa44bb7b81>@@AEAV<lambda_5f0a4c1567f8adc6734073e5d1e1b35c>@@V<lambda_2e8a7d3640ea6ccb4c2413664c2db6fd>@@@?$__crt_seh_guarded_call@X@@QEAAX$$QEAV<lambda_efdfa57d1f175319df784efa44bb7b81>@@AEAV<lambda_5f0a4c1567f8adc6734073e5d1e1b35c>@@$$QEAV<lambda_2e8a7d3640ea6ccb4c2413664c2db6fd>@@@Z 000000018001e6c0     libucrt:mbctype.obj
 0002:000096e8       $unwind$__dcrt_get_narrow_environment_from_os 000000018001e6e8     libucrt:get_environment_from_os.obj
 0002:00009700       $unwind$__acrt_LCMapStringEx 000000018001e700     libucrt:winapi_thunks.obj
 0002:00009714       $unwind$raise              000000018001e714     libucrt:signal.obj
 0002:00009740       $unwind$??$?RV<lambda_450d765d439847d4c735a33c368b5fc0>@@AEAV<lambda_44731a7d0e6d81c3e6aa82d741081786>@@V<lambda_601a2a7da3b7a96e9554ac7215c4b07c>@@@?$__crt_seh_guarded_call@P6AXH@Z@@QEAAP6AXH@Z$$QEAV<lambda_450d765d439847d4c735a33c368b5fc0>@@AEAV<lambda_44731a7d0e6d81c3e6aa82d741081786>@@$$QEAV<lambda_601a2a7da3b7a96e9554ac7215c4b07c>@@@Z 000000018001e740     libucrt:signal.obj
 0002:00009764       $unwind$?common_flush_all@@YAH_N@Z 000000018001e764     libucrt:fflush.obj
 0002:0000976c       $unwind$??$?RV<lambda_842d9ff0dc9ef11c61343bbaebe7f885>@@AEAV<lambda_c5860995281e5c4ce005b3de8f5874ee>@@V<lambda_d90129c13df834fdcbf8d2b88dafcf2d>@@@?$__crt_seh_guarded_call@X@@QEAAX$$QEAV<lambda_842d9ff0dc9ef11c61343bbaebe7f885>@@AEAV<lambda_c5860995281e5c4ce005b3de8f5874ee>@@$$QEAV<lambda_d90129c13df834fdcbf8d2b88dafcf2d>@@@Z 000000018001e76c     libucrt:fflush.obj
 0002:00009790       $unwind$??$?RV<lambda_886d6c58226a84441f68b9f2b8217b83>@@AEAV<lambda_ab61a845afdef5b7c387490eaf3616ee>@@V<lambda_f7f22ab5edc0698d5f6905b0d3f44752>@@@?$__crt_seh_guarded_call@X@@QEAAX$$QEAV<lambda_886d6c58226a84441f68b9f2b8217b83>@@AEAV<lambda_ab61a845afdef5b7c387490eaf3616ee>@@$$QEAV<lambda_f7f22ab5edc0698d5f6905b0d3f44752>@@@Z 000000018001e790     libucrt:fflush.obj
 0002:000097b8       $unwind$_mbtowc_l          000000018001e7b8     libucrt:mbtowc.obj
 0002:000097d0       $unwind$_isctype_l         000000018001e7d0     libucrt:isctype.obj
 0002:000097ec       $unwind$_fcloseall         000000018001e7ec     libucrt:closeall.obj
 0002:00009810       $unwind$_read              000000018001e810     libucrt:read.obj
 0002:00009840       $unwind$_read_nolock       000000018001e840     libucrt:read.obj
 0002:00009858       $unwind$?translate_ansi_or_utf8_nolock@@YAHHQEAD_KQEA_W1@Z 000000018001e858     libucrt:read.obj
 0002:00009874       $unwind$??$translate_text_mode_nolock@D@@YAHHQEAD_K@Z 000000018001e874     libucrt:read.obj
 0002:0000988c       $unwind$??$translate_text_mode_nolock@_W@@YAHHQEA_W_K@Z 000000018001e88c     libucrt:read.obj
 0002:000098a4       $unwind$__acrt_lowio_destroy_handle_array 000000018001e8a4     libucrt:osfinfo.obj
 0002:000098b4       $unwind$__acrt_lowio_ensure_fh_exists 000000018001e8b4     libucrt:osfinfo.obj
 0002:000098e0       $unwind$__acrt_update_thread_locale_data 000000018001e8e0     libucrt:locale_refcounting.obj
 0002:00009904       $unwind$__acrt_LCMapStringA 000000018001e904     libucrt:lcmapstringa.obj
 0002:00009914       $unwind$?__acrt_LCMapStringA_stat@@YAHPEAU__crt_locale_pointers@@PEB_WKPEBDHPEADHHH@Z 000000018001e914     libucrt:lcmapstringa.obj
 0002:0000993c       $unwind$__acrt_locale_free_monetary 000000018001e93c     libucrt:initmon.obj
 0002:00009944       $unwind$__acrt_locale_free_time 000000018001e944     libucrt:inittime.obj
 0002:00009954       $unwind$__acrt_GetStringTypeA 000000018001e954     libucrt:getstringtypea.obj
 0002:0000997c       $unwind$qsort              000000018001e97c     libucrt:qsort.obj
 0002:00009994       $chain$4$qsort             000000018001e994     libucrt:qsort.obj
 0002:000099b8       $chain$5$qsort             000000018001e9b8     libucrt:qsort.obj
 0002:000099c8       $unwind$strpbrk            000000018001e9c8     libucrt:strpbrk.obj
 0002:000099d8       $unwind$fallbackMethod     000000018001e9d8     libucrt:strpbrk.obj
 0002:000099e8       $unwind$_mbsdec_l          000000018001e9e8     libucrt:mbsdec.obj
 0002:000099f4       $unwind$?GetTableIndexFromLocaleName@@YAHPEB_W@Z 000000018001e9f4     libucrt:lcidtoname_downlevel.obj
 0002:00009a0c       $unwind$_close             000000018001ea0c     libucrt:close.obj
 0002:00009a0c       $unwind$_commit            000000018001ea0c     libucrt:commit.obj
 0002:00009a14       $unwind$??$?RV<lambda_a37b2b86f63e897a80ea819b0eb08c01>@@AEAV<lambda_38ce7e780aa69e748d6df282ebc68efe>@@V<lambda_99fb1378e971ab6e7edea83e3a7a83a2>@@@?$__crt_seh_guarded_call@H@@QEAAH$$QEAV<lambda_a37b2b86f63e897a80ea819b0eb08c01>@@AEAV<lambda_38ce7e780aa69e748d6df282ebc68efe>@@$$QEAV<lambda_99fb1378e971ab6e7edea83e3a7a83a2>@@@Z 000000018001ea14     libucrt:commit.obj
 0002:00009a38       $unwind$_write             000000018001ea38     libucrt:write.obj
 0002:00009a68       $unwind$_write_nolock      000000018001ea68     libucrt:write.obj
 0002:00009a80       $unwind$?write_double_translated_ansi_nolock@@YA?AUwrite_result@?A0x17268360@@HQEBDI@Z 000000018001ea80     libucrt:write.obj
 0002:00009aa0       $unwind$?write_text_utf16le_nolock@@YA?AUwrite_result@?A0x17268360@@HQEBDI@Z 000000018001eaa0     libucrt:write.obj
 0002:00009aa0       $unwind$?write_text_ansi_nolock@@YA?AUwrite_result@?A0x17268360@@HQEBDI@Z 000000018001eaa0     libucrt:write.obj
 0002:00009ac0       $unwind$?write_text_utf8_nolock@@YA?AUwrite_result@?A0x17268360@@HQEBDI@Z 000000018001eac0     libucrt:write.obj
 0002:00009ae4       $unwind$fclose             000000018001eae4     libucrt:fclose.obj
 0002:00009b08       $unwind$_putwch_nolock     000000018001eb08     libucrt:putwch.obj
 0002:00009b10       $xdatasym                  000000018001eb10     libucrt:log10.obj
 0002:00009b1c       $unwind$??$?RV<lambda_751a882b2c74d4b022dec766aa51a29a>@@AEAV<lambda_628dfdc04ba53c8bfc02c9951375f3f5>@@V<lambda_f6c7be5f7998530c34de24c7437d6b54>@@@?$__crt_seh_guarded_call@H@@QEAAH$$QEAV<lambda_751a882b2c74d4b022dec766aa51a29a>@@AEAV<lambda_628dfdc04ba53c8bfc02c9951375f3f5>@@$$QEAV<lambda_f6c7be5f7998530c34de24c7437d6b54>@@@Z 000000018001eb1c     libucrt:close.obj
 0002:00009b40       $unwind$__dcrt_write_console_w 000000018001eb40     libucrt:initcon.obj
 0002:00009b54       $unwind$_call_matherr      000000018001eb54     libucrt:libm_error.obj
 0002:00009b5c       $unwind$_handle_error      000000018001eb5c     libucrt:libm_error.obj
 0002:00009b7c       $unwind$__acrt_initialize_fma3 000000018001eb7c     libucrt:fma3_available.obj
 0002:00009b84       $unwind$_log_special_common 000000018001eb84     libucrt:log_special.obj
 0002:00009b90       $xdatasym                  000000018001eb90     libucrt:fpsr.obj
 0002:00009b98       $unwind$_raise_exc_ex      000000018001eb98     libucrt:fpexcept.obj
 0002:00009bac       $unwind$_ctrlfp            000000018001ebac     libucrt:fpctrl.obj
 0002:00009bd4       $unwind$?DloadObtainSection@@YAPEAXPEAK0@Z 000000018001ebd4     DelayImp:delayhlp.obj
 0002:00009be4       $unwind$?DloadMakePermanentImageCommit@@YAXPEAX_K@Z 000000018001ebe4     DelayImp:delayhlp.obj
 0002:00009bf0       $unwind$?DloadProtectSection@@YAXKPEAK@Z 000000018001ebf0     DelayImp:delayhlp.obj
 0002:00009c00       $unwind$__delayLoadHelper2 000000018001ec00     DelayImp:delayhlp.obj
 0002:00009c18       $unwind$_IsNonwritableInCurrentImage 000000018001ec18     LIBCMT:pesect.obj
 0002:00009c3c       $unwind$__GSHandlerCheckCommon 000000018001ec3c     LIBCMT:gshandler.obj
 0002:00009c48       $xdatasym                  000000018001ec48     LIBCMT:chkstk.obj
 0002:00009c50       $unwind$_local_unwind      000000018001ec50     libvcruntime:jmpuwind.obj
 0002:00009c58       $xdatasym                  000000018001ec58     libvcruntime:memcmp.obj
 0002:0000a8f0       .edata                     000000018001f8f0     memoryjs.exp
 0002:0000a918       rgpv                       000000018001f918     memoryjs.exp
 0002:0000a91c       rgszName                   000000018001f91c     memoryjs.exp
 0002:0000a920       rgwOrd                     000000018001f920     memoryjs.exp
 0002:0000a922       szName                     000000018001f922     memoryjs.exp
 0002:0000a930       $N00001                    000000018001f930     memoryjs.exp
 0002:0000ad96       .idata$6                   000000018001fd96     kernel32:KERNEL32.dll
 0003:00000030       ?__vcrt_flsindex@@3KA      0000000180021030     libvcruntime:per_thread_data.obj
 0003:00000044       ?errno_no_memory@@3HA      0000000180021044     libucrt:errno.obj
 0003:00000048       ?doserrno_no_memory@@3KA   0000000180021048     libucrt:errno.obj
 0003:000001a0       ?__acrt_flsindex@@3KA      00000001800211a0     libucrt:per_thread_data.obj
 0003:00000550       _mbctypes                  0000000180021550     libucrt:mbctype.obj
 0003:00000660       _mbcasemaps                0000000180021660     libucrt:mbctype.obj
 0003:00000760       ?__rgctypeflag@@3PADA      0000000180021760     libucrt:mbctype.obj
 0003:00000770       ?__rgcode_page_info@@3PAUcode_page_info@@A 0000000180021770     libucrt:mbctype.obj
 0003:00000a10       ?__dcrt_lowio_console_output_handle@@3PEAXEA 0000000180021a10     libucrt:initcon.obj
 0003:00000a20       ?dazSupported@?1??_ctrlfp@@9@9 0000000180021a20     libucrt:fpctrl.obj
 0003:00000a40       _module                    0000000180021a40     memoryjs.obj
 0003:00000cf8       ?is_initialized_as_dll@@3_NA 0000000180021cf8     LIBCMT:utility.obj
 0003:00000cf9       ?module_local_atexit_table_initialized@@3_NA 0000000180021cf9     LIBCMT:utility.obj
 0003:00000d00       ?module_local_atexit_table@@3U_onexit_table_t@@A 0000000180021d00     LIBCMT:utility.obj
 0003:00000d18       ?module_local_at_quick_exit_table@@3U_onexit_table_t@@A 0000000180021d18     LIBCMT:utility.obj
 0003:00000d30       ?__proc_attached@@3HA      0000000180021d30     LIBCMT:dll_dllmain.obj
 0003:00000d40       GS_ExceptionRecord         0000000180021d40     LIBCMT:gs_report.obj
 0003:00000de0       GS_ContextRecord           0000000180021de0     LIBCMT:gs_report.obj
 0003:00001320       ?heap@@3V_HeapManager@@A   0000000180022320     libvcruntime:undname.obj
 0003:00001350       ?__vcrt_startup_thread_ptd@@3U__vcrt_ptd@@A 0000000180022350     libvcruntime:per_thread_data.obj
 0003:000013e0       __vcrt_lock_table          00000001800223e0     libvcruntime:locks.obj
 0003:00001408       __vcrt_locks_initialized   0000000180022408     libvcruntime:locks.obj
 0003:00001410       ?module_handles@@3PAPEAUHINSTANCE__@@A 0000000180022410     libvcruntime:winapi_downlevel.obj
 0003:00001428       ?encoded_function_pointers@@3PAPEAXA 0000000180022428     libvcruntime:winapi_downlevel.obj
 0003:00001460       ?__acrt_invalid_parameter_handler@@3V?$dual_state_global@P6AXPEB_W00I_K@Z@__crt_state_management@@A 0000000180022460     libucrt:invalid_parameter.obj
 0003:00001468       ?__acrt_new_handler@@3V?$dual_state_global@P6AH_K@Z@__crt_state_management@@A 0000000180022468     libucrt:new_handler.obj
 0003:00001470       ?c_termination_complete@@3JA 0000000180022470     libucrt:exit.obj
 0003:00001478       ?thread_local_exit_callback_func@@3P6AXPEAXK0@ZEA 0000000180022478     libucrt:exit.obj
 0003:00001490       ?program_name@?1???$common_configure_argv@D@@YAHW4_crt_argv_mode@@@Z@4PADA 0000000180022490     libucrt:argv_parsing.obj
 0003:00001a10       ?__acrt_lock_table@@3PAU_RTL_CRITICAL_SECTION@@A 0000000180022a10     libucrt:locks.obj
 0003:00001c40       ?__acrt_locks_initialized@@3IA 0000000180022c40     libucrt:locks.obj
 0003:00001c60       ?fSystemSet@@3HA           0000000180022c60     libucrt:mbctype.obj
 0003:00001c64       ?initialized@?1??__acrt_initialize_multibyte@@9@4_NA 0000000180022c64     libucrt:mbctype.obj
 0003:00001ca0       ?module_handles@@3PAPEAUHINSTANCE__@@A 0000000180022ca0     libucrt:winapi_thunks.obj
 0003:00001d40       ?encoded_function_pointers@@3PAPEAXA 0000000180022d40     libucrt:winapi_thunks.obj
 0003:00001e58       ?ctrlc_action@@3V?$dual_state_global@P6AXH@Z@__crt_state_management@@A 0000000180022e58     libucrt:signal.obj
 0003:00001e60       ?ctrlbreak_action@@3V?$dual_state_global@P6AXH@Z@__crt_state_management@@A 0000000180022e60     libucrt:signal.obj
 0003:00001e68       ?abort_action@@3V?$dual_state_global@P6AXH@Z@__crt_state_management@@A 0000000180022e68     libucrt:signal.obj
 0003:00001e70       ?term_action@@3V?$dual_state_global@P6AXH@Z@__crt_state_management@@A 0000000180022e70     libucrt:signal.obj
 0003:00001e78       ?user_matherr@@3V?$dual_state_global@P6AHPEAU_exception@@@Z@__crt_state_management@@A 0000000180022e78     libucrt:matherr.obj
 0003:00001e90       ?__acrt_global_new_mode@@3V?$dual_state_global@J@__crt_state_management@@A 0000000180022e90     libucrt:new_mode.obj
 0003:00001e9c       ?__acrt_app_type@@3W4_crt_app_type@@A 0000000180022e9c     libucrt:report_runtime_error.obj
 0004:00000000       $pdata$?NODE_SET_METHOD@node@@YAXV?$Local@VObject@v8@@@v8@@PEBDP6AXAEBV?$FunctionCallbackInfo@VValue@v8@@@3@@Z@Z 0000000180023000     memoryjs.obj
 0004:0000000c       $pdata$?throwError@memoryjs@@SAXPEADPEAVIsolate@v8@@@Z 000000018002300c     memoryjs.obj
 0004:00000018       $pdata$?openProcess@@YAXAEBV?$FunctionCallbackInfo@VValue@v8@@@v8@@@Z 0000000180023018     memoryjs.obj
 0004:00000024       $pdata$0$?openProcess@@YAXAEBV?$FunctionCallbackInfo@VValue@v8@@@v8@@@Z 0000000180023024     memoryjs.obj
 0004:00000030       $pdata$4$?openProcess@@YAXAEBV?$FunctionCallbackInfo@VValue@v8@@@v8@@@Z 0000000180023030     memoryjs.obj
 0004:0000003c       $pdata$5$?openProcess@@YAXAEBV?$FunctionCallbackInfo@VValue@v8@@@v8@@@Z 000000018002303c     memoryjs.obj
 0004:00000048       $pdata$6$?openProcess@@YAXAEBV?$FunctionCallbackInfo@VValue@v8@@@v8@@@Z 0000000180023048     memoryjs.obj
 0004:00000054       $pdata$7$?openProcess@@YAXAEBV?$FunctionCallbackInfo@VValue@v8@@@v8@@@Z 0000000180023054     memoryjs.obj
 0004:00000060       $pdata$?closeProcess@@YAXAEBV?$FunctionCallbackInfo@VValue@v8@@@v8@@@Z 0000000180023060     memoryjs.obj
 0004:0000006c       $pdata$?getProcesses@@YAXAEBV?$FunctionCallbackInfo@VValue@v8@@@v8@@@Z 000000018002306c     memoryjs.obj
 0004:00000078       $pdata$0$?getProcesses@@YAXAEBV?$FunctionCallbackInfo@VValue@v8@@@v8@@@Z 0000000180023078     memoryjs.obj
 0004:00000084       $pdata$2$?getProcesses@@YAXAEBV?$FunctionCallbackInfo@VValue@v8@@@v8@@@Z 0000000180023084     memoryjs.obj
 0004:00000090       $pdata$3$?getProcesses@@YAXAEBV?$FunctionCallbackInfo@VValue@v8@@@v8@@@Z 0000000180023090     memoryjs.obj
 0004:0000009c       $pdata$4$?getProcesses@@YAXAEBV?$FunctionCallbackInfo@VValue@v8@@@v8@@@Z 000000018002309c     memoryjs.obj
 0004:000000a8       $pdata$5$?getProcesses@@YAXAEBV?$FunctionCallbackInfo@VValue@v8@@@v8@@@Z 00000001800230a8     memoryjs.obj
 0004:000000b4       $pdata$6$?getProcesses@@YAXAEBV?$FunctionCallbackInfo@VValue@v8@@@v8@@@Z 00000001800230b4     memoryjs.obj
 0004:000000c0       $pdata$7$?getProcesses@@YAXAEBV?$FunctionCallbackInfo@VValue@v8@@@v8@@@Z 00000001800230c0     memoryjs.obj
 0004:000000cc       $pdata$9$?getProcesses@@YAXAEBV?$FunctionCallbackInfo@VValue@v8@@@v8@@@Z 00000001800230cc     memoryjs.obj
 0004:000000d8       $pdata$?getModules@@YAXAEBV?$FunctionCallbackInfo@VValue@v8@@@v8@@@Z 00000001800230d8     memoryjs.obj
 0004:000000e4       $pdata$2$?getModules@@YAXAEBV?$FunctionCallbackInfo@VValue@v8@@@v8@@@Z 00000001800230e4     memoryjs.obj
 0004:000000f0       $pdata$3$?getModules@@YAXAEBV?$FunctionCallbackInfo@VValue@v8@@@v8@@@Z 00000001800230f0     memoryjs.obj
 0004:000000fc       $pdata$5$?getModules@@YAXAEBV?$FunctionCallbackInfo@VValue@v8@@@v8@@@Z 00000001800230fc     memoryjs.obj
 0004:00000108       $pdata$6$?getModules@@YAXAEBV?$FunctionCallbackInfo@VValue@v8@@@v8@@@Z 0000000180023108     memoryjs.obj
 0004:00000114       $pdata$7$?getModules@@YAXAEBV?$FunctionCallbackInfo@VValue@v8@@@v8@@@Z 0000000180023114     memoryjs.obj
 0004:00000120       $pdata$8$?getModules@@YAXAEBV?$FunctionCallbackInfo@VValue@v8@@@v8@@@Z 0000000180023120     memoryjs.obj
 0004:0000012c       $pdata$10$?getModules@@YAXAEBV?$FunctionCallbackInfo@VValue@v8@@@v8@@@Z 000000018002312c     memoryjs.obj
 0004:00000138       $pdata$?findModule@@YAXAEBV?$FunctionCallbackInfo@VValue@v8@@@v8@@@Z 0000000180023138     memoryjs.obj
 0004:00000144       $pdata$0$?findModule@@YAXAEBV?$FunctionCallbackInfo@VValue@v8@@@v8@@@Z 0000000180023144     memoryjs.obj
 0004:00000150       $pdata$2$?findModule@@YAXAEBV?$FunctionCallbackInfo@VValue@v8@@@v8@@@Z 0000000180023150     memoryjs.obj
 0004:0000015c       $pdata$3$?findModule@@YAXAEBV?$FunctionCallbackInfo@VValue@v8@@@v8@@@Z 000000018002315c     memoryjs.obj
 0004:00000168       $pdata$4$?findModule@@YAXAEBV?$FunctionCallbackInfo@VValue@v8@@@v8@@@Z 0000000180023168     memoryjs.obj
 0004:00000174       $pdata$?readMemory@@YAXAEBV?$FunctionCallbackInfo@VValue@v8@@@v8@@@Z 0000000180023174     memoryjs.obj
 0004:00000180       $pdata$0$?readMemory@@YAXAEBV?$FunctionCallbackInfo@VValue@v8@@@v8@@@Z 0000000180023180     memoryjs.obj
 0004:0000018c       $pdata$3$?readMemory@@YAXAEBV?$FunctionCallbackInfo@VValue@v8@@@v8@@@Z 000000018002318c     memoryjs.obj
 0004:00000198       $pdata$4$?readMemory@@YAXAEBV?$FunctionCallbackInfo@VValue@v8@@@v8@@@Z 0000000180023198     memoryjs.obj
 0004:000001a4       $pdata$5$?readMemory@@YAXAEBV?$FunctionCallbackInfo@VValue@v8@@@v8@@@Z 00000001800231a4     memoryjs.obj
 0004:000001b0       $pdata$6$?readMemory@@YAXAEBV?$FunctionCallbackInfo@VValue@v8@@@v8@@@Z 00000001800231b0     memoryjs.obj
 0004:000001bc       $pdata$7$?readMemory@@YAXAEBV?$FunctionCallbackInfo@VValue@v8@@@v8@@@Z 00000001800231bc     memoryjs.obj
 0004:000001c8       $pdata$8$?readMemory@@YAXAEBV?$FunctionCallbackInfo@VValue@v8@@@v8@@@Z 00000001800231c8     memoryjs.obj
 0004:000001d4       $pdata$?readBuffer@@YAXAEBV?$FunctionCallbackInfo@VValue@v8@@@v8@@@Z 00000001800231d4     memoryjs.obj
 0004:000001e0       $pdata$0$?readBuffer@@YAXAEBV?$FunctionCallbackInfo@VValue@v8@@@v8@@@Z 00000001800231e0     memoryjs.obj
 0004:000001ec       $pdata$4$?readBuffer@@YAXAEBV?$FunctionCallbackInfo@VValue@v8@@@v8@@@Z 00000001800231ec     memoryjs.obj
 0004:000001f8       $pdata$5$?readBuffer@@YAXAEBV?$FunctionCallbackInfo@VValue@v8@@@v8@@@Z 00000001800231f8     memoryjs.obj
 0004:00000204       $pdata$6$?readBuffer@@YAXAEBV?$FunctionCallbackInfo@VValue@v8@@@v8@@@Z 0000000180023204     memoryjs.obj
 0004:00000210       $pdata$8$?readBuffer@@YAXAEBV?$FunctionCallbackInfo@VValue@v8@@@v8@@@Z 0000000180023210     memoryjs.obj
 0004:0000021c       $pdata$10$?readBuffer@@YAXAEBV?$FunctionCallbackInfo@VValue@v8@@@v8@@@Z 000000018002321c     memoryjs.obj
 0004:00000228       $pdata$?writeMemory@@YAXAEBV?$FunctionCallbackInfo@VValue@v8@@@v8@@@Z 0000000180023228     memoryjs.obj
 0004:00000234       $pdata$5$?writeMemory@@YAXAEBV?$FunctionCallbackInfo@VValue@v8@@@v8@@@Z 0000000180023234     memoryjs.obj
 0004:00000240       $pdata$6$?writeMemory@@YAXAEBV?$FunctionCallbackInfo@VValue@v8@@@v8@@@Z 0000000180023240     memoryjs.obj
 0004:0000024c       $pdata$7$?writeMemory@@YAXAEBV?$FunctionCallbackInfo@VValue@v8@@@v8@@@Z 000000018002324c     memoryjs.obj
 0004:00000258       $pdata$8$?writeMemory@@YAXAEBV?$FunctionCallbackInfo@VValue@v8@@@v8@@@Z 0000000180023258     memoryjs.obj
 0004:00000264       $pdata$?writeBuffer@@YAXAEBV?$FunctionCallbackInfo@VValue@v8@@@v8@@@Z 0000000180023264     memoryjs.obj
 0004:00000270       $pdata$?findPattern@@YAXAEBV?$FunctionCallbackInfo@VValue@v8@@@v8@@@Z 0000000180023270     memoryjs.obj
 0004:0000027c       $pdata$2$?findPattern@@YAXAEBV?$FunctionCallbackInfo@VValue@v8@@@v8@@@Z 000000018002327c     memoryjs.obj
 0004:00000288       $pdata$3$?findPattern@@YAXAEBV?$FunctionCallbackInfo@VValue@v8@@@v8@@@Z 0000000180023288     memoryjs.obj
 0004:00000294       $pdata$?setProtection@@YAXAEBV?$FunctionCallbackInfo@VValue@v8@@@v8@@@Z 0000000180023294     memoryjs.obj
 0004:000002a0       $pdata$2$?setProtection@@YAXAEBV?$FunctionCallbackInfo@VValue@v8@@@v8@@@Z 00000001800232a0     memoryjs.obj
 0004:000002ac       $pdata$3$?setProtection@@YAXAEBV?$FunctionCallbackInfo@VValue@v8@@@v8@@@Z 00000001800232ac     memoryjs.obj
 0004:000002b8       $pdata$?callFunction@@YAXAEBV?$FunctionCallbackInfo@VValue@v8@@@v8@@@Z 00000001800232b8     memoryjs.obj
 0004:000002c4       $pdata$5$?callFunction@@YAXAEBV?$FunctionCallbackInfo@VValue@v8@@@v8@@@Z 00000001800232c4     memoryjs.obj
 0004:000002d0       $pdata$6$?callFunction@@YAXAEBV?$FunctionCallbackInfo@VValue@v8@@@v8@@@Z 00000001800232d0     memoryjs.obj
 0004:000002dc       $pdata$7$?callFunction@@YAXAEBV?$FunctionCallbackInfo@VValue@v8@@@v8@@@Z 00000001800232dc     memoryjs.obj
 0004:000002e8       $pdata$?virtualAllocEx@@YAXAEBV?$FunctionCallbackInfo@VValue@v8@@@v8@@@Z 00000001800232e8     memoryjs.obj
 0004:000002f4       $pdata$4$?virtualAllocEx@@YAXAEBV?$FunctionCallbackInfo@VValue@v8@@@v8@@@Z 00000001800232f4     memoryjs.obj
 0004:00000300       $pdata$5$?virtualAllocEx@@YAXAEBV?$FunctionCallbackInfo@VValue@v8@@@v8@@@Z 0000000180023300     memoryjs.obj
 0004:0000030c       $pdata$8$?virtualAllocEx@@YAXAEBV?$FunctionCallbackInfo@VValue@v8@@@v8@@@Z 000000018002330c     memoryjs.obj
 0004:00000318       $pdata$10$?virtualAllocEx@@YAXAEBV?$FunctionCallbackInfo@VValue@v8@@@v8@@@Z 0000000180023318     memoryjs.obj
 0004:00000324       $pdata$12$?virtualAllocEx@@YAXAEBV?$FunctionCallbackInfo@VValue@v8@@@v8@@@Z 0000000180023324     memoryjs.obj
 0004:00000330       $pdata$13$?virtualAllocEx@@YAXAEBV?$FunctionCallbackInfo@VValue@v8@@@v8@@@Z 0000000180023330     memoryjs.obj
 0004:0000033c       $pdata$?init@@YAXV?$Local@VObject@v8@@@v8@@@Z 000000018002333c     memoryjs.obj
 0004:00000348       $pdata$?assign@?$basic_string@DU?$char_traits@D@std@@V?$allocator@D@2@@std@@QEAAAEAV12@QEBD_K@Z 0000000180023348     memoryjs.obj
 0004:00000354       $pdata$0$?assign@?$basic_string@DU?$char_traits@D@std@@V?$allocator@D@2@@std@@QEAAAEAV12@QEBD_K@Z 0000000180023354     memoryjs.obj
 0004:00000360       $pdata$1$?assign@?$basic_string@DU?$char_traits@D@std@@V?$allocator@D@2@@std@@QEAAAEAV12@QEBD_K@Z 0000000180023360     memoryjs.obj
 0004:0000036c       $pdata$2$?assign@?$basic_string@DU?$char_traits@D@std@@V?$allocator@D@2@@std@@QEAAAEAV12@QEBD_K@Z 000000018002336c     memoryjs.obj
 0004:00000378       $pdata$3$?assign@?$basic_string@DU?$char_traits@D@std@@V?$allocator@D@2@@std@@QEAAAEAV12@QEBD_K@Z 0000000180023378     memoryjs.obj
 0004:00000384       $pdata$?_Xlength@?$vector@UArg@@V?$allocator@UArg@@@std@@@std@@CAXXZ 0000000180023384     memoryjs.obj
 0004:00000384       $pdata$?_Xlength@?$vector@DV?$allocator@D@std@@@std@@CAXXZ 0000000180023384     memoryjs.obj
 0004:00000384       $pdata$?_Xlength@?$vector@PEAXV?$allocator@PEAX@std@@@std@@CAXXZ 0000000180023384     memoryjs.obj
 0004:00000384       $pdata$?_Xlength@?$vector@EV?$allocator@E@std@@@std@@CAXXZ 0000000180023384     memoryjs.obj
 0004:00000384       $pdata$?_Xlength@?$vector@UtagMODULEENTRY32@@V?$allocator@UtagMODULEENTRY32@@@std@@@std@@CAXXZ 0000000180023384     module.obj
 0004:00000384       $pdata$?_Xlength@?$vector@UtagPROCESSENTRY32@@V?$allocator@UtagPROCESSENTRY32@@@std@@@std@@CAXXZ 0000000180023384     process.obj
 0004:00000390       $pdata$??$call@H@functions@@YA?AUCall@@PEAXV?$vector@UArg@@V?$allocator@UArg@@@std@@@std@@W4Type@@_KPEAPEAD@Z 0000000180023390     memoryjs.obj
 0004:0000039c       $pdata$??$_Emplace_reallocate@AEBQEAX@?$vector@PEAXV?$allocator@PEAX@std@@@std@@QEAAPEAPEAXQEAPEAXAEBQEAX@Z 000000018002339c     memoryjs.obj
 0004:000003a8       $pdata$3$??$_Emplace_reallocate@AEBQEAX@?$vector@PEAXV?$allocator@PEAX@std@@@std@@QEAAPEAPEAXQEAPEAXAEBQEAX@Z 00000001800233a8     memoryjs.obj
 0004:000003b4       $pdata$5$??$_Emplace_reallocate@AEBQEAX@?$vector@PEAXV?$allocator@PEAX@std@@@std@@QEAAPEAPEAXQEAPEAXAEBQEAX@Z 00000001800233b4     memoryjs.obj
 0004:000003c0       $pdata$6$??$_Emplace_reallocate@AEBQEAX@?$vector@PEAXV?$allocator@PEAX@std@@@std@@QEAAPEAPEAXQEAPEAXAEBQEAX@Z 00000001800233c0     memoryjs.obj
 0004:000003cc       $pdata$??$_Emplace_reallocate@AEBE@?$vector@EV?$allocator@E@std@@@std@@QEAAPEAEQEAEAEBE@Z 00000001800233cc     memoryjs.obj
 0004:000003cc       $pdata$??$_Emplace_reallocate@AEBD@?$vector@DV?$allocator@D@std@@@std@@QEAAPEADQEADAEBD@Z 00000001800233cc     memoryjs.obj
 0004:000003cc       $pdata$??$_Emplace_reallocate@E@?$vector@EV?$allocator@E@std@@@std@@QEAAPEAEQEAE$$QEAE@Z 00000001800233cc     memoryjs.obj
 0004:000003d8       $pdata$2$??$_Emplace_reallocate@E@?$vector@EV?$allocator@E@std@@@std@@QEAAPEAEQEAE$$QEAE@Z 00000001800233d8     memoryjs.obj
 0004:000003d8       $pdata$2$??$_Emplace_reallocate@AEBE@?$vector@EV?$allocator@E@std@@@std@@QEAAPEAEQEAEAEBE@Z 00000001800233d8     memoryjs.obj
 0004:000003d8       $pdata$2$??$_Emplace_reallocate@AEBD@?$vector@DV?$allocator@D@std@@@std@@QEAAPEADQEADAEBD@Z 00000001800233d8     memoryjs.obj
 0004:000003e4       $pdata$4$??$_Emplace_reallocate@E@?$vector@EV?$allocator@E@std@@@std@@QEAAPEAEQEAE$$QEAE@Z 00000001800233e4     memoryjs.obj
 0004:000003e4       $pdata$4$??$_Emplace_reallocate@AEBD@?$vector@DV?$allocator@D@std@@@std@@QEAAPEADQEADAEBD@Z 00000001800233e4     memoryjs.obj
 0004:000003e4       $pdata$4$??$_Emplace_reallocate@AEBE@?$vector@EV?$allocator@E@std@@@std@@QEAAPEAEQEAEAEBE@Z 00000001800233e4     memoryjs.obj
 0004:000003f0       $pdata$5$??$_Emplace_reallocate@AEBD@?$vector@DV?$allocator@D@std@@@std@@QEAAPEADQEADAEBD@Z 00000001800233f0     memoryjs.obj
 0004:000003f0       $pdata$5$??$_Emplace_reallocate@AEBE@?$vector@EV?$allocator@E@std@@@std@@QEAAPEAEQEAEAEBE@Z 00000001800233f0     memoryjs.obj
 0004:000003f0       $pdata$5$??$_Emplace_reallocate@E@?$vector@EV?$allocator@E@std@@@std@@QEAAPEAEQEAE$$QEAE@Z 00000001800233f0     memoryjs.obj
 0004:000003fc       $pdata$??$_Emplace_reallocate@UArg@@@?$vector@UArg@@V?$allocator@UArg@@@std@@@std@@QEAAPEAUArg@@QEAU2@$$QEAU2@@Z 00000001800233fc     memoryjs.obj
 0004:00000408       $pdata$2$??$_Emplace_reallocate@UArg@@@?$vector@UArg@@V?$allocator@UArg@@@std@@@std@@QEAAPEAUArg@@QEAU2@$$QEAU2@@Z 0000000180023408     memoryjs.obj
 0004:00000414       $pdata$4$??$_Emplace_reallocate@UArg@@@?$vector@UArg@@V?$allocator@UArg@@@std@@@std@@QEAAPEAUArg@@QEAU2@$$QEAU2@@Z 0000000180023414     memoryjs.obj
 0004:00000420       $pdata$5$??$_Emplace_reallocate@UArg@@@?$vector@UArg@@V?$allocator@UArg@@@std@@@std@@QEAAPEAUArg@@QEAU2@$$QEAU2@@Z 0000000180023420     memoryjs.obj
 0004:0000042c       $pdata$?_Xlen@?$basic_string@DU?$char_traits@D@std@@V?$allocator@D@2@@std@@SAXXZ 000000018002342c     memoryjs.obj
 0004:00000438       $pdata$?_Xrange@?$vector@EV?$allocator@E@std@@@std@@CAXXZ 0000000180023438     memoryjs.obj
 0004:00000444       $pdata$??$_Insert_range@PEAE@?$vector@EV?$allocator@E@std@@@std@@AEAAXV?$_Vector_const_iterator@V?$_Vector_val@U?$_Simple_types@E@std@@@std@@@1@PEAE1Uforward_iterator_tag@1@@Z 0000000180023444     memoryjs.obj
 0004:00000450       $pdata$1$??$_Insert_range@PEAE@?$vector@EV?$allocator@E@std@@@std@@AEAAXV?$_Vector_const_iterator@V?$_Vector_val@U?$_Simple_types@E@std@@@std@@@1@PEAE1Uforward_iterator_tag@1@@Z 0000000180023450     memoryjs.obj
 0004:0000045c       $pdata$2$??$_Insert_range@PEAE@?$vector@EV?$allocator@E@std@@@std@@AEAAXV?$_Vector_const_iterator@V?$_Vector_val@U?$_Simple_types@E@std@@@std@@@1@PEAE1Uforward_iterator_tag@1@@Z 000000018002345c     memoryjs.obj
 0004:00000468       $pdata$3$??$_Insert_range@PEAE@?$vector@EV?$allocator@E@std@@@std@@AEAAXV?$_Vector_const_iterator@V?$_Vector_val@U?$_Simple_types@E@std@@@std@@@1@PEAE1Uforward_iterator_tag@1@@Z 0000000180023468     memoryjs.obj
 0004:00000474       $pdata$4$??$_Insert_range@PEAE@?$vector@EV?$allocator@E@std@@@std@@AEAAXV?$_Vector_const_iterator@V?$_Vector_val@U?$_Simple_types@E@std@@@std@@@1@PEAE1Uforward_iterator_tag@1@@Z 0000000180023474     memoryjs.obj
 0004:00000480       $pdata$5$??$_Insert_range@PEAE@?$vector@EV?$allocator@E@std@@@std@@AEAAXV?$_Vector_const_iterator@V?$_Vector_val@U?$_Simple_types@E@std@@@std@@@1@PEAE1Uforward_iterator_tag@1@@Z 0000000180023480     memoryjs.obj
 0004:0000048c       $pdata$6$??$_Insert_range@PEAE@?$vector@EV?$allocator@E@std@@@std@@AEAAXV?$_Vector_const_iterator@V?$_Vector_val@U?$_Simple_types@E@std@@@std@@@1@PEAE1Uforward_iterator_tag@1@@Z 000000018002348c     memoryjs.obj
 0004:00000498       $pdata$?getProcesses@process@@QEAA?AV?$vector@UtagPROCESSENTRY32@@V?$allocator@UtagPROCESSENTRY32@@@std@@@std@@PEAPEAD@Z 0000000180023498     process.obj
 0004:000004a4       $pdata$??$_Emplace_reallocate@AEBUtagPROCESSENTRY32@@@?$vector@UtagPROCESSENTRY32@@V?$allocator@UtagPROCESSENTRY32@@@std@@@std@@QEAAPEAUtagPROCESSENTRY32@@QEAU2@AEBU2@@Z 00000001800234a4     process.obj
 0004:000004b0       $pdata$2$??$_Emplace_reallocate@AEBUtagPROCESSENTRY32@@@?$vector@UtagPROCESSENTRY32@@V?$allocator@UtagPROCESSENTRY32@@@std@@@std@@QEAAPEAUtagPROCESSENTRY32@@QEAU2@AEBU2@@Z 00000001800234b0     process.obj
 0004:000004bc       $pdata$4$??$_Emplace_reallocate@AEBUtagPROCESSENTRY32@@@?$vector@UtagPROCESSENTRY32@@V?$allocator@UtagPROCESSENTRY32@@@std@@@std@@QEAAPEAUtagPROCESSENTRY32@@QEAU2@AEBU2@@Z 00000001800234bc     process.obj
 0004:000004c8       $pdata$5$??$_Emplace_reallocate@AEBUtagPROCESSENTRY32@@@?$vector@UtagPROCESSENTRY32@@V?$allocator@UtagPROCESSENTRY32@@@std@@@std@@QEAAPEAUtagPROCESSENTRY32@@QEAU2@AEBU2@@Z 00000001800234c8     process.obj
 0004:000004d4       $pdata$?findModule@module@@QEAA?AUtagMODULEENTRY32@@PEBDKPEAPEAD@Z 00000001800234d4     module.obj
 0004:000004e0       $pdata$?getModules@module@@QEAA?AV?$vector@UtagMODULEENTRY32@@V?$allocator@UtagMODULEENTRY32@@@std@@@std@@KPEAPEAD@Z 00000001800234e0     module.obj
 0004:000004ec       $pdata$??$_Emplace_reallocate@AEBUtagMODULEENTRY32@@@?$vector@UtagMODULEENTRY32@@V?$allocator@UtagMODULEENTRY32@@@std@@@std@@QEAAPEAUtagMODULEENTRY32@@QEAU2@AEBU2@@Z 00000001800234ec     module.obj
 0004:000004f8       $pdata$2$??$_Emplace_reallocate@AEBUtagMODULEENTRY32@@@?$vector@UtagMODULEENTRY32@@V?$allocator@UtagMODULEENTRY32@@@std@@@std@@QEAAPEAUtagMODULEENTRY32@@QEAU2@AEBU2@@Z 00000001800234f8     module.obj
 0004:00000504       $pdata$4$??$_Emplace_reallocate@AEBUtagMODULEENTRY32@@@?$vector@UtagMODULEENTRY32@@V?$allocator@UtagMODULEENTRY32@@@std@@@std@@QEAAPEAUtagMODULEENTRY32@@QEAU2@AEBU2@@Z 0000000180023504     module.obj
 0004:00000510       $pdata$5$??$_Emplace_reallocate@AEBUtagMODULEENTRY32@@@?$vector@UtagMODULEENTRY32@@V?$allocator@UtagMODULEENTRY32@@@std@@@std@@QEAAPEAUtagMODULEENTRY32@@QEAU2@AEBU2@@Z 0000000180023510     module.obj
 0004:0000051c       $pdata$?findPattern@pattern@@QEAA_KPEAXUtagMODULEENTRY32@@PEBDF_K3@Z 000000018002351c     pattern.obj
 0004:00000528       $pdata$0$?findPattern@pattern@@QEAA_KPEAXUtagMODULEENTRY32@@PEBDF_K3@Z 0000000180023528     pattern.obj
 0004:00000534       $pdata$1$?findPattern@pattern@@QEAA_KPEAXUtagMODULEENTRY32@@PEBDF_K3@Z 0000000180023534     pattern.obj
 0004:00000540       $pdata$?load_exe_hook@@YAP6A_JXZIPEAUDelayLoadInfo@@@Z 0000000180023540     win_delay_load_hook.obj
 0004:00000558       $pdata$??0bad_alloc@std@@QEAA@AEBV01@@Z 0000000180023558     libcpmt:xthrow.obj
 0004:00000564       $pdata$??0exception@std@@QEAA@AEBV01@@Z 0000000180023564     libcpmt:xthrow.obj
 0004:00000570       $pdata$??0length_error@std@@QEAA@AEBV01@@Z 0000000180023570     libcpmt:xthrow.obj
 0004:0000057c       $pdata$??0length_error@std@@QEAA@PEBD@Z 000000018002357c     libcpmt:xthrow.obj
 0004:00000588       $pdata$??0logic_error@std@@QEAA@AEBV01@@Z 0000000180023588     libcpmt:xthrow.obj
 0004:00000594       $pdata$??0out_of_range@std@@QEAA@AEBV01@@Z 0000000180023594     libcpmt:xthrow.obj
 0004:000005a0       $pdata$??0out_of_range@std@@QEAA@PEBD@Z 00000001800235a0     libcpmt:xthrow.obj
 0004:000005ac       $pdata$??_Glength_error@std@@UEAAPEAXI@Z 00000001800235ac     libcpmt:xthrow.obj
 0004:000005ac       $pdata$??_Gbad_alloc@std@@UEAAPEAXI@Z 00000001800235ac     libcpmt:xthrow.obj
 0004:000005ac       $pdata$??_Gexception@std@@UEAAPEAXI@Z 00000001800235ac     libcpmt:xthrow.obj
 0004:000005ac       $pdata$??_Gout_of_range@std@@UEAAPEAXI@Z 00000001800235ac     libcpmt:xthrow.obj
 0004:000005ac       $pdata$??_Gbad_array_new_length@std@@UEAAPEAXI@Z 00000001800235ac     LIBCMT:throw_bad_alloc.obj
 0004:000005ac       $pdata$??_Glogic_error@std@@UEAAPEAXI@Z 00000001800235ac     libcpmt:xthrow.obj
 0004:000005b8       $pdata$?_Xlength_error@std@@YAXPEBD@Z 00000001800235b8     libcpmt:xthrow.obj
 0004:000005c4       $pdata$?_Xout_of_range@std@@YAXPEBD@Z 00000001800235c4     libcpmt:xthrow.obj
 0004:000005dc       $pdata$??2@YAPEAX_K@Z      00000001800235dc     LIBCMT:new_scalar.obj
 0004:000005e8       $pdata$__scrt_acquire_startup_lock 00000001800235e8     LIBCMT:utility.obj
 0004:000005f4       $pdata$__scrt_dllmain_after_initialize_c 00000001800235f4     LIBCMT:utility.obj
 0004:00000600       $pdata$__scrt_dllmain_before_initialize_c 0000000180023600     LIBCMT:utility.obj
 0004:0000060c       $pdata$__scrt_dllmain_crt_thread_attach 000000018002360c     LIBCMT:utility.obj
 0004:00000618       $pdata$__scrt_dllmain_crt_thread_detach 0000000180023618     LIBCMT:utility.obj
 0004:00000624       $pdata$__scrt_dllmain_exception_filter 0000000180023624     LIBCMT:utility.obj
 0004:00000630       $pdata$__scrt_dllmain_uninitialize_c 0000000180023630     LIBCMT:utility.obj
 0004:0000063c       $pdata$__scrt_dllmain_uninitialize_critical 000000018002363c     LIBCMT:utility.obj
 0004:00000648       $pdata$__scrt_initialize_crt 0000000180023648     LIBCMT:utility.obj
 0004:00000654       $pdata$__scrt_initialize_onexit_tables 0000000180023654     LIBCMT:utility.obj
 0004:00000660       $pdata$__scrt_is_nonwritable_in_current_image 0000000180023660     LIBCMT:utility.obj
 0004:0000066c       $pdata$__scrt_release_startup_lock 000000018002366c     LIBCMT:utility.obj
 0004:00000678       $pdata$__scrt_uninitialize_crt 0000000180023678     LIBCMT:utility.obj
 0004:00000684       $pdata$_onexit             0000000180023684     LIBCMT:utility.obj
 0004:00000690       $pdata$atexit              0000000180023690     LIBCMT:utility.obj
 0004:0000069c       $pdata$??_Gtype_info@@UEAAPEAXI@Z 000000018002369c     LIBCMT:std_type_info_static.obj
 0004:000006a8       $pdata$?dllmain_crt_dispatch@@YAHQEAUHINSTANCE__@@KQEAX@Z 00000001800236a8     LIBCMT:dll_dllmain.obj
 0004:000006b4       $pdata$?dllmain_crt_process_attach@@YAHQEAUHINSTANCE__@@QEAX@Z 00000001800236b4     LIBCMT:dll_dllmain.obj
 0004:000006c0       $pdata$?dllmain_crt_process_detach@@YAH_N@Z 00000001800236c0     LIBCMT:dll_dllmain.obj
 0004:000006cc       $pdata$?dllmain_dispatch@@YAHQEAUHINSTANCE__@@KQEAX@Z 00000001800236cc     LIBCMT:dll_dllmain.obj
 0004:000006d8       $pdata$_DllMainCRTStartup  00000001800236d8     LIBCMT:dll_dllmain.obj
 0004:000006e4       $pdata$__raise_securityfailure 00000001800236e4     LIBCMT:gs_report.obj
 0004:000006f0       $pdata$__report_gsfailure  00000001800236f0     LIBCMT:gs_report.obj
 0004:000006fc       $pdata$__report_rangecheckfailure 00000001800236fc     LIBCMT:gs_report.obj
 0004:00000708       $pdata$__report_securityfailure 0000000180023708     LIBCMT:gs_report.obj
 0004:00000714       $pdata$capture_current_context 0000000180023714     LIBCMT:gs_report.obj
 0004:00000720       $pdata$capture_previous_context 0000000180023720     LIBCMT:gs_report.obj
 0004:0000072c       $pdata$??0bad_array_new_length@std@@QEAA@AEBV01@@Z 000000018002372c     LIBCMT:throw_bad_alloc.obj
 0004:00000738       $pdata$?__scrt_throw_std_bad_alloc@@YAXXZ 0000000180023738     LIBCMT:throw_bad_alloc.obj
 0004:00000744       $pdata$?__scrt_throw_std_bad_array_new_length@@YAXXZ 0000000180023744     LIBCMT:throw_bad_alloc.obj
 0004:00000750       $pdata$__isa_available_init 0000000180023750     LIBCMT:cpu_disp.obj
 0004:0000075c       $pdata$__scrt_fastfail     000000018002375c     LIBCMT:utility_desktop.obj
 0004:00000768       $pdata$__security_init_cookie 0000000180023768     LIBCMT:gs_support.obj
 0004:00000774       $pdata$__scrt_initialize_default_local_stdio_options 0000000180023774     LIBCMT:default_local_stdio_options.obj
 0004:00000780       $pdata$_RTC_Initialize     0000000180023780     LIBCMT:initsect.obj
 0004:0000078c       $pdata$_RTC_Terminate      000000018002378c     LIBCMT:initsect.obj
 0004:00000798       $pdata$__std_type_info_destroy_list 0000000180023798     libvcruntime:std_type_info.obj
 0004:000007a4       $pdata$__std_exception_copy 00000001800237a4     libvcruntime:std_exception.obj
 0004:000007b0       $pdata$__std_exception_destroy 00000001800237b0     libvcruntime:std_exception.obj
 0004:000007bc       $pdata$_CxxThrowException  00000001800237bc     libvcruntime:throw.obj
 0004:000007c8       $pdata$__vcrt_initialize   00000001800237c8     libvcruntime:initialization.obj
 0004:000007d4       $pdata$__vcrt_thread_attach 00000001800237d4     libvcruntime:initialization.obj
 0004:000007e0       $pdata$__vcrt_thread_detach 00000001800237e0     libvcruntime:initialization.obj
 0004:000007ec       $pdata$__vcrt_uninitialize 00000001800237ec     libvcruntime:initialization.obj
 0004:000007f8       $pdata$__vcrt_uninitialize_critical 00000001800237f8     libvcruntime:initialization.obj
 0004:00000804       $pdata$__C_specific_handler 0000000180023804     libvcruntime:riscchandler.obj
 0004:00000828       $pdata$__vcrt_freefls      0000000180023828     libvcruntime:per_thread_data.obj
 0004:00000834       $pdata$__vcrt_freeptd      0000000180023834     libvcruntime:per_thread_data.obj
 0004:00000840       $pdata$__vcrt_getptd_noexit 0000000180023840     libvcruntime:per_thread_data.obj
 0004:0000084c       $pdata$__vcrt_initialize_ptd 000000018002384c     libvcruntime:per_thread_data.obj
 0004:00000858       $pdata$__vcrt_uninitialize_ptd 0000000180023858     libvcruntime:per_thread_data.obj
 0004:00000864       $pdata$__vcrt_initialize_locks 0000000180023864     libvcruntime:locks.obj
 0004:00000870       $pdata$__vcrt_uninitialize_locks 0000000180023870     libvcruntime:locks.obj
 0004:0000087c       $pdata$?try_get_function@@YAPEAXW4function_id@?A0xbfd18cd1@@QEBDQEBW4module_id@2@2@Z 000000018002387c     libvcruntime:winapi_downlevel.obj
 0004:00000888       $pdata$__vcrt_FlsAlloc     0000000180023888     libvcruntime:winapi_downlevel.obj
 0004:00000894       $pdata$__vcrt_FlsFree      0000000180023894     libvcruntime:winapi_downlevel.obj
 0004:000008a0       $pdata$__vcrt_FlsGetValue  00000001800238a0     libvcruntime:winapi_downlevel.obj
 0004:000008ac       $pdata$__vcrt_FlsSetValue  00000001800238ac     libvcruntime:winapi_downlevel.obj
 0004:000008b8       $pdata$__vcrt_InitializeCriticalSectionEx 00000001800238b8     libvcruntime:winapi_downlevel.obj
 0004:000008c4       $pdata$__vcrt_initialize_winapi_thunks 00000001800238c4     libvcruntime:winapi_downlevel.obj
 0004:000008d0       $pdata$__vcrt_uninitialize_winapi_thunks 00000001800238d0     libvcruntime:winapi_downlevel.obj
 0004:00000900       $pdata$__DestructExceptionObject 0000000180023900     libvcruntime:ehhelpers.obj
 0004:0000093c       $pdata$_fgetc_nolock       000000018002393c     libucrt:fgetc.obj
 0004:00000948       $pdata$fgetc               0000000180023948     libucrt:fgetc.obj
 0004:00000954       $pdata$getchar             0000000180023954     libucrt:fgetc.obj
 0004:00000960       $pdata$__acrt_call_reportfault 0000000180023960     libucrt:invalid_parameter.obj
 0004:0000096c       $pdata$_invalid_parameter  000000018002396c     libucrt:invalid_parameter.obj
 0004:00000978       $pdata$_invalid_parameter_noinfo 0000000180023978     libucrt:invalid_parameter.obj
 0004:00000984       $pdata$_invalid_parameter_noinfo_noreturn 0000000180023984     libucrt:invalid_parameter.obj
 0004:00000990       $pdata$_invoke_watson      0000000180023990     libucrt:invalid_parameter.obj
 0004:0000099c       $pdata$??0_LocaleUpdate@@QEAA@QEAU__crt_locale_pointers@@@Z 000000018002399c     libucrt:stricmp.obj
 0004:000009a8       $pdata$_stricmp            00000001800239a8     libucrt:stricmp.obj
 0004:000009b4       $pdata$_stricmp_l          00000001800239b4     libucrt:stricmp.obj
 0004:000009c0       $pdata$_callnewh           00000001800239c0     libucrt:new_handler.obj
 0004:000009cc       $pdata$_query_new_handler  00000001800239cc     libucrt:new_handler.obj
 0004:000009d8       $pdata$_seh_filter_exe     00000001800239d8     libucrt:exception_filter.obj
 0004:000009e4       $pdata$??$?RV<lambda_d80eeec6fff315bfe5c115232f3240e3>@@AEAV<lambda_6e4b09c48022b2350581041d5f6b0c4c>@@V<lambda_2358e3775559c9db80273638284d5e45>@@@?$__crt_seh_guarded_call@X@@QEAAX$$QEAV<lambda_d80eeec6fff315bfe5c115232f3240e3>@@AEAV<lambda_6e4b09c48022b2350581041d5f6b0c4c>@@$$QEAV<lambda_2358e3775559c9db80273638284d5e45>@@@Z 00000001800239e4     libucrt:exit.obj
 0004:000009f0       $pdata$??R<lambda_6e4b09c48022b2350581041d5f6b0c4c>@@QEBA@XZ 00000001800239f0     libucrt:exit.obj
 0004:000009fc       $pdata$?common_exit@@YAXHW4_crt_exit_cleanup_mode@@W4_crt_exit_return_mode@@@Z 00000001800239fc     libucrt:exit.obj
 0004:00000a08       $pdata$?exit_or_terminate_process@@YAXI@Z 0000000180023a08     libucrt:exit.obj
 0004:00000a14       $pdata$?try_cor_exit_process@@YAXI@Z 0000000180023a14     libucrt:exit.obj
 0004:00000a20       $pdata$??$parse_command_line@D@@YAXPEADPEAPEAD0PEA_K2@Z 0000000180023a20     libucrt:argv_parsing.obj
 0004:00000a2c       $pdata$__acrt_allocate_buffer_for_argv 0000000180023a2c     libucrt:argv_parsing.obj
 0004:00000a38       $pdata$_configure_narrow_argv 0000000180023a38     libucrt:argv_parsing.obj
 0004:00000a44       $pdata$??$common_initialize_environment_nolock@D@@YAHXZ 0000000180023a44     libucrt:environment_initialization.obj
 0004:00000a50       $pdata$??$create_environment@D@@YAQEAPEADQEAD@Z 0000000180023a50     libucrt:environment_initialization.obj
 0004:00000a5c       $pdata$??$free_environment@D@@YAXQEAPEAD@Z 0000000180023a5c     libucrt:environment_initialization.obj
 0004:00000a5c       $pdata$??$free_environment@_W@@YAXQEAPEA_W@Z 0000000180023a5c     libucrt:environment_initialization.obj
 0004:00000a68       $pdata$??$uninitialize_environment_internal@D@@YAXAEAPEAPEAD@Z 0000000180023a68     libucrt:environment_initialization.obj
 0004:00000a74       $pdata$??$uninitialize_environment_internal@_W@@YAXAEAPEAPEA_W@Z 0000000180023a74     libucrt:environment_initialization.obj
 0004:00000a80       $pdata$__dcrt_uninitialize_environments_nolock 0000000180023a80     libucrt:environment_initialization.obj
 0004:00000a8c       $pdata$??$?RV<lambda_7777bce6b2f8c936911f934f8298dc43>@@AEAV<lambda_f03950bc5685219e0bcd2087efbe011e>@@V<lambda_3883c3dff614d5e0c5f61bb1ac94921c>@@@?$__crt_seh_guarded_call@H@@QEAAH$$QEAV<lambda_7777bce6b2f8c936911f934f8298dc43>@@AEAV<lambda_f03950bc5685219e0bcd2087efbe011e>@@$$QEAV<lambda_3883c3dff614d5e0c5f61bb1ac94921c>@@@Z 0000000180023a8c     libucrt:onexit.obj
 0004:00000a98       $pdata$??$?RV<lambda_8369fcb7c4df1e85de37618bd2b85f07>@@AEAV<lambda_a10e4b102d4a2c3aac6f4f48bbdf488f>@@V<lambda_5b7707bd6d7a0c4713179f36c7fd995d>@@@?$__crt_seh_guarded_call@H@@QEAAH$$QEAV<lambda_8369fcb7c4df1e85de37618bd2b85f07>@@AEAV<lambda_a10e4b102d4a2c3aac6f4f48bbdf488f>@@$$QEAV<lambda_5b7707bd6d7a0c4713179f36c7fd995d>@@@Z 0000000180023a98     libucrt:onexit.obj
 0004:00000aa4       $pdata$??R<lambda_a10e4b102d4a2c3aac6f4f48bbdf488f>@@QEBAHXZ 0000000180023aa4     libucrt:onexit.obj
 0004:00000ab0       $pdata$??R<lambda_f03950bc5685219e0bcd2087efbe011e>@@QEBAHXZ 0000000180023ab0     libucrt:onexit.obj
 0004:00000abc       $pdata$_execute_onexit_table 0000000180023abc     libucrt:onexit.obj
 0004:00000ac8       $pdata$_register_onexit_function 0000000180023ac8     libucrt:onexit.obj
 0004:00000ad4       $pdata$initialize_c        0000000180023ad4     libucrt:initialization.obj
 0004:00000ae0       $pdata$uninitialize_environment 0000000180023ae0     libucrt:initialization.obj
 0004:00000aec       $pdata$initialize_pointers 0000000180023aec     libucrt:initialization.obj
 0004:00000af8       $pdata$uninitialize_allocated_memory 0000000180023af8     libucrt:initialization.obj
 0004:00000b04       $pdata$uninitialize_allocated_io_buffers 0000000180023b04     libucrt:initialization.obj
 0004:00000b10       $pdata$__acrt_thread_attach 0000000180023b10     libucrt:initialization.obj
 0004:00000b1c       $pdata$__acrt_thread_detach 0000000180023b1c     libucrt:initialization.obj
 0004:00000b28       $pdata$__acrt_uninitialize 0000000180023b28     libucrt:initialization.obj
 0004:00000b34       $pdata$__acrt_uninitialize_critical 0000000180023b34     libucrt:initialization.obj
 0004:00000b40       $pdata$_initterm           0000000180023b40     libucrt:initterm.obj
 0004:00000b4c       $pdata$_initterm_e         0000000180023b4c     libucrt:initterm.obj
 0004:00000b58       $pdata$terminate           0000000180023b58     libucrt:terminate.obj
 0004:00000b64       $pdata$strcpy_s            0000000180023b64     libucrt:strcpy_s.obj
 0004:00000b7c       $pdata$abort               0000000180023b7c     libucrt:abort.obj
 0004:00000b88       $pdata$_free_base          0000000180023b88     libucrt:free_base.obj
 0004:00000b94       $pdata$__acrt_errno_map_os_error 0000000180023b94     libucrt:errno.obj
 0004:00000ba0       $pdata$__doserrno          0000000180023ba0     libucrt:errno.obj
 0004:00000bac       $pdata$_errno              0000000180023bac     libucrt:errno.obj
 0004:00000bb8       $pdata$__acrt_initialize_stdio 0000000180023bb8     libucrt:_file.obj
 0004:00000bc4       $pdata$__acrt_uninitialize_stdio 0000000180023bc4     libucrt:_file.obj
 0004:00000bd0       $pdata$_fileno             0000000180023bd0     libucrt:fileno.obj
 0004:00000bdc       $pdata$__acrt_stdio_refill_and_read_narrow_nolock 0000000180023bdc     libucrt:_filbuf.obj
 0004:00000be8       $pdata$?initialize_inherited_file_handles_nolock@@YAXXZ 0000000180023be8     libucrt:ioinit.obj
 0004:00000bf4       $pdata$?initialize_stdio_handles_nolock@@YAXXZ 0000000180023bf4     libucrt:ioinit.obj
 0004:00000c00       $pdata$__acrt_initialize_lowio 0000000180023c00     libucrt:ioinit.obj
 0004:00000c0c       $pdata$__acrt_uninitialize_lowio 0000000180023c0c     libucrt:ioinit.obj
 0004:00000c18       $pdata$??$?RV<lambda_0ae27a3a962d80f24befdcbee591983d>@@AEAV<lambda_8d0ee55de4b1038c4002e0adecdf1839>@@V<lambda_dc504788e8f1664fe9b84e20bfb512f2>@@@?$__crt_seh_guarded_call@X@@QEAAX$$QEAV<lambda_0ae27a3a962d80f24befdcbee591983d>@@AEAV<lambda_8d0ee55de4b1038c4002e0adecdf1839>@@$$QEAV<lambda_dc504788e8f1664fe9b84e20bfb512f2>@@@Z 0000000180023c18     libucrt:per_thread_data.obj
 0004:00000c24       $pdata$??$?RV<lambda_2d41944a1d46af3157314b8a01080d33>@@AEAV<lambda_8f455de75cd7d7f24b4096f044d8b9e6>@@V<lambda_aa500f224e6afead328df44964fe2772>@@@?$__crt_seh_guarded_call@X@@QEAAX$$QEAV<lambda_2d41944a1d46af3157314b8a01080d33>@@AEAV<lambda_8f455de75cd7d7f24b4096f044d8b9e6>@@$$QEAV<lambda_aa500f224e6afead328df44964fe2772>@@@Z 0000000180023c24     libucrt:per_thread_data.obj
 0004:00000c30       $pdata$??$?RV<lambda_aa87e3671a710a21b5dc78c0bdf72e11>@@AEAV<lambda_92619d2358a28f41a33ba319515a20b9>@@V<lambda_6992ecaafeb10aed2b74cb1fae11a551>@@@?$__crt_seh_guarded_call@X@@QEAAX$$QEAV<lambda_aa87e3671a710a21b5dc78c0bdf72e11>@@AEAV<lambda_92619d2358a28f41a33ba319515a20b9>@@$$QEAV<lambda_6992ecaafeb10aed2b74cb1fae11a551>@@@Z 0000000180023c30     libucrt:per_thread_data.obj
 0004:00000c3c       $pdata$??$?RV<lambda_f2e299630e499de9f9a165e60fcd3db5>@@AEAV<lambda_2ae9d31cdba2644fcbeaf08da7c24588>@@V<lambda_40d01ff24d0e7b3814fdbdcee8eab3c7>@@@?$__crt_seh_guarded_call@X@@QEAAX$$QEAV<lambda_f2e299630e499de9f9a165e60fcd3db5>@@AEAV<lambda_2ae9d31cdba2644fcbeaf08da7c24588>@@$$QEAV<lambda_40d01ff24d0e7b3814fdbdcee8eab3c7>@@@Z 0000000180023c3c     libucrt:per_thread_data.obj
 0004:00000c48       $pdata$?construct_ptd_array@@YAXQEAU__acrt_ptd@@@Z 0000000180023c48     libucrt:per_thread_data.obj
 0004:00000c54       $pdata$?destroy_fls@@YAXPEAX@Z 0000000180023c54     libucrt:per_thread_data.obj
 0004:00000c60       $pdata$?destroy_ptd_array@@YAXQEAU__acrt_ptd@@@Z 0000000180023c60     libucrt:per_thread_data.obj
 0004:00000c6c       $pdata$?replace_current_thread_locale_nolock@@YAXQEAU__acrt_ptd@@QEAU__crt_locale_data@@@Z 0000000180023c6c     libucrt:per_thread_data.obj
 0004:00000c78       $pdata$__acrt_freeptd      0000000180023c78     libucrt:per_thread_data.obj
 0004:00000c84       $pdata$__acrt_getptd       0000000180023c84     libucrt:per_thread_data.obj
 0004:00000c90       $pdata$__acrt_getptd_head  0000000180023c90     libucrt:per_thread_data.obj
 0004:00000c9c       $pdata$__acrt_getptd_noexit 0000000180023c9c     libucrt:per_thread_data.obj
 0004:00000ca8       $pdata$__acrt_initialize_ptd 0000000180023ca8     libucrt:per_thread_data.obj
 0004:00000cb4       $pdata$__acrt_uninitialize_ptd 0000000180023cb4     libucrt:per_thread_data.obj
 0004:00000cc0       $pdata$_malloc_base        0000000180023cc0     libucrt:malloc_base.obj
 0004:00000ccc       $pdata$?internal_isupper_l@@YA_NHQEAU__crt_locale_pointers@@@Z 0000000180023ccc     libucrt:tolower_toupper.obj
 0004:00000cd8       $pdata$_tolower_l          0000000180023cd8     libucrt:tolower_toupper.obj
 0004:00000ce4       $pdata$__acrt_update_locale_info 0000000180023ce4     libucrt:locale_update.obj
 0004:00000cf0       $pdata$__acrt_update_multibyte_info 0000000180023cf0     libucrt:locale_update.obj
 0004:00000cfc       $pdata$??$?RV<lambda_410d79af7f07d98d83a3f525b3859a53>@@AEAV<lambda_3e16ef9562a7dcce91392c22ab16ea36>@@V<lambda_38119f0e861e05405d8a144b9b982f0a>@@@?$__crt_seh_guarded_call@X@@QEAAX$$QEAV<lambda_410d79af7f07d98d83a3f525b3859a53>@@AEAV<lambda_3e16ef9562a7dcce91392c22ab16ea36>@@$$QEAV<lambda_38119f0e861e05405d8a144b9b982f0a>@@@Z 0000000180023cfc     libucrt:wsetlocale.obj
 0004:00000d08       $pdata$__acrt_uninitialize_locale 0000000180023d08     libucrt:wsetlocale.obj
 0004:00000d14       $pdata$__acrt_initialize_locks 0000000180023d14     libucrt:locks.obj
 0004:00000d20       $pdata$__acrt_uninitialize_locks 0000000180023d20     libucrt:locks.obj
 0004:00000d2c       $pdata$__acrt_get_process_end_policy 0000000180023d2c     libucrt:win_policies.obj
 0004:00000d38       $pdata$_calloc_base        0000000180023d38     libucrt:calloc_base.obj
 0004:00000d44       $pdata$??$common_expand_argv_wildcards@D@@YAHQEAPEADQEAPEAPEAD@Z 0000000180023d44     libucrt:argv_wildcards.obj
 0004:00000d50       $pdata$??$copy_and_add_argument_to_buffer@D@@YAHQEBD0_KAEAV?$argument_list@D@?A0x5f5c8891@@@Z 0000000180023d50     libucrt:argv_wildcards.obj
 0004:00000d5c       $pdata$??$expand_argument_wildcards@D@@YAHQEAD0AEAV?$argument_list@D@?A0x5f5c8891@@@Z 0000000180023d5c     libucrt:argv_wildcards.obj
 0004:00000d68       $pdata$??$?RV<lambda_efdfa57d1f175319df784efa44bb7b81>@@AEAV<lambda_5f0a4c1567f8adc6734073e5d1e1b35c>@@V<lambda_2e8a7d3640ea6ccb4c2413664c2db6fd>@@@?$__crt_seh_guarded_call@X@@QEAAX$$QEAV<lambda_efdfa57d1f175319df784efa44bb7b81>@@AEAV<lambda_5f0a4c1567f8adc6734073e5d1e1b35c>@@$$QEAV<lambda_2e8a7d3640ea6ccb4c2413664c2db6fd>@@@Z 0000000180023d68     libucrt:mbctype.obj
 0004:00000d74       $pdata$?getSystemCP@@YAHH@Z 0000000180023d74     libucrt:mbctype.obj
 0004:00000d80       $pdata$?setSBCS@@YAXPEAU__crt_multibyte_data@@@Z 0000000180023d80     libucrt:mbctype.obj
 0004:00000d8c       $pdata$?setSBUpLow@@YAXPEAU__crt_multibyte_data@@@Z 0000000180023d8c     libucrt:mbctype.obj
 0004:00000d98       $pdata$?setmbcp_internal@@YAHH_NQEAU__acrt_ptd@@QEAPEAU__crt_multibyte_data@@@Z 0000000180023d98     libucrt:mbctype.obj
 0004:00000da4       $pdata$?update_thread_multibyte_data_internal@@YAPEAU__crt_multibyte_data@@QEAU__acrt_ptd@@QEAPEAU1@@Z 0000000180023da4     libucrt:mbctype.obj
 0004:00000db0       $pdata$__acrt_initialize_multibyte 0000000180023db0     libucrt:mbctype.obj
 0004:00000dbc       $pdata$__acrt_update_thread_multibyte_data 0000000180023dbc     libucrt:mbctype.obj
 0004:00000dc8       $pdata$_setmbcp_nolock     0000000180023dc8     libucrt:mbctype.obj
 0004:00000dd4       $pdata$?x_ismbbtype_l@@YAHPEAU__crt_locale_pointers@@IHH@Z 0000000180023dd4     libucrt:ismbbyte.obj
 0004:00000de0       $pdata$__acrt_initialize_command_line 0000000180023de0     libucrt:argv_data.obj
 0004:00000dec       $pdata$__dcrt_get_narrow_environment_from_os 0000000180023dec     libucrt:get_environment_from_os.obj
 0004:00000df8       $pdata$_recalloc_base      0000000180023df8     libucrt:recalloc.obj
 0004:00000e04       $pdata$?try_get_function@@YAPEAXW4function_id@?A0x391cf84c@@QEBDQEBW4module_id@2@2@Z 0000000180023e04     libucrt:winapi_thunks.obj
 0004:00000e10       $pdata$__acrt_AppPolicyGetProcessTerminationMethodInternal 0000000180023e10     libucrt:winapi_thunks.obj
 0004:00000e1c       $pdata$__acrt_FlsAlloc     0000000180023e1c     libucrt:winapi_thunks.obj
 0004:00000e28       $pdata$__acrt_FlsFree      0000000180023e28     libucrt:winapi_thunks.obj
 0004:00000e34       $pdata$__acrt_FlsGetValue  0000000180023e34     libucrt:winapi_thunks.obj
 0004:00000e40       $pdata$__acrt_FlsSetValue  0000000180023e40     libucrt:winapi_thunks.obj
 0004:00000e4c       $pdata$__acrt_InitializeCriticalSectionEx 0000000180023e4c     libucrt:winapi_thunks.obj
 0004:00000e58       $pdata$__acrt_LCMapStringEx 0000000180023e58     libucrt:winapi_thunks.obj
 0004:00000e64       $pdata$__acrt_LocaleNameToLCID 0000000180023e64     libucrt:winapi_thunks.obj
 0004:00000e70       $pdata$__acrt_initialize_winapi_thunks 0000000180023e70     libucrt:winapi_thunks.obj
 0004:00000e7c       $pdata$__acrt_uninitialize_winapi_thunks 0000000180023e7c     libucrt:winapi_thunks.obj
 0004:00000e88       $pdata$__acrt_initialize_heap 0000000180023e88     libucrt:heap_handle.obj
 0004:00000e94       $pdata$__acrt_execute_initializers 0000000180023e94     libucrt:shared_initialization.obj
 0004:00000ea0       $pdata$__acrt_execute_uninitializers 0000000180023ea0     libucrt:shared_initialization.obj
 0004:00000eac       $pdata$??$?RV<lambda_450d765d439847d4c735a33c368b5fc0>@@AEAV<lambda_44731a7d0e6d81c3e6aa82d741081786>@@V<lambda_601a2a7da3b7a96e9554ac7215c4b07c>@@@?$__crt_seh_guarded_call@P6AXH@Z@@QEAAP6AXH@Z$$QEAV<lambda_450d765d439847d4c735a33c368b5fc0>@@AEAV<lambda_44731a7d0e6d81c3e6aa82d741081786>@@$$QEAV<lambda_601a2a7da3b7a96e9554ac7215c4b07c>@@@Z 0000000180023eac     libucrt:signal.obj
 0004:00000eb8       $pdata$__acrt_get_sigabrt_handler 0000000180023eb8     libucrt:signal.obj
 0004:00000ec4       $pdata$raise               0000000180023ec4     libucrt:signal.obj
 0004:00000ed0       $pdata$??$?RV<lambda_842d9ff0dc9ef11c61343bbaebe7f885>@@AEAV<lambda_c5860995281e5c4ce005b3de8f5874ee>@@V<lambda_d90129c13df834fdcbf8d2b88dafcf2d>@@@?$__crt_seh_guarded_call@X@@QEAAX$$QEAV<lambda_842d9ff0dc9ef11c61343bbaebe7f885>@@AEAV<lambda_c5860995281e5c4ce005b3de8f5874ee>@@$$QEAV<lambda_d90129c13df834fdcbf8d2b88dafcf2d>@@@Z 0000000180023ed0     libucrt:fflush.obj
 0004:00000edc       $pdata$??$?RV<lambda_886d6c58226a84441f68b9f2b8217b83>@@AEAV<lambda_ab61a845afdef5b7c387490eaf3616ee>@@V<lambda_f7f22ab5edc0698d5f6905b0d3f44752>@@@?$__crt_seh_guarded_call@X@@QEAAX$$QEAV<lambda_886d6c58226a84441f68b9f2b8217b83>@@AEAV<lambda_ab61a845afdef5b7c387490eaf3616ee>@@$$QEAV<lambda_f7f22ab5edc0698d5f6905b0d3f44752>@@@Z 0000000180023edc     libucrt:fflush.obj
 0004:00000ee8       $pdata$?common_flush_all@@YAH_N@Z 0000000180023ee8     libucrt:fflush.obj
 0004:00000ef4       $pdata$__acrt_stdio_flush_nolock 0000000180023ef4     libucrt:fflush.obj
 0004:00000f00       $pdata$_fflush_nolock      0000000180023f00     libucrt:fflush.obj
 0004:00000f0c       $pdata$_mbtowc_l           0000000180023f0c     libucrt:mbtowc.obj
 0004:00000f18       $pdata$__pctype_func       0000000180023f18     libucrt:ctype.obj
 0004:00000f24       $pdata$_isctype_l          0000000180023f24     libucrt:isctype.obj
 0004:00000f30       $pdata$_fcloseall          0000000180023f30     libucrt:closeall.obj
 0004:00000f3c       $pdata$__acrt_stdio_free_buffer_nolock 0000000180023f3c     libucrt:_freebuf.obj
 0004:00000f48       $pdata$??$translate_text_mode_nolock@D@@YAHHQEAD_K@Z 0000000180023f48     libucrt:read.obj
 0004:00000f54       $pdata$??$translate_text_mode_nolock@_W@@YAHHQEA_W_K@Z 0000000180023f54     libucrt:read.obj
 0004:00000f60       $pdata$?translate_ansi_or_utf8_nolock@@YAHHQEAD_KQEA_W1@Z 0000000180023f60     libucrt:read.obj
 0004:00000f6c       $pdata$_read               0000000180023f6c     libucrt:read.obj
 0004:00000f78       $pdata$_read_nolock        0000000180023f78     libucrt:read.obj
 0004:00000f84       $pdata$__acrt_stdio_allocate_buffer_nolock 0000000180023f84     libucrt:_getbuf.obj
 0004:00000f90       $pdata$__acrt_lowio_create_handle_array 0000000180023f90     libucrt:osfinfo.obj
 0004:00000f9c       $pdata$__acrt_lowio_destroy_handle_array 0000000180023f9c     libucrt:osfinfo.obj
 0004:00000fa8       $pdata$__acrt_lowio_ensure_fh_exists 0000000180023fa8     libucrt:osfinfo.obj
 0004:00000fb4       $pdata$_free_osfhnd        0000000180023fb4     libucrt:osfinfo.obj
 0004:00000fc0       $pdata$_get_osfhandle      0000000180023fc0     libucrt:osfinfo.obj
 0004:00000fcc       $pdata$__acrt_free_locale  0000000180023fcc     libucrt:locale_refcounting.obj
 0004:00000fd8       $pdata$__acrt_locale_free_lc_time_if_unreferenced 0000000180023fd8     libucrt:locale_refcounting.obj
 0004:00000fe4       $pdata$__acrt_release_locale_ref 0000000180023fe4     libucrt:locale_refcounting.obj
 0004:00000ff0       $pdata$__acrt_update_thread_locale_data 0000000180023ff0     libucrt:locale_refcounting.obj
 0004:00000ffc       $pdata$_updatetlocinfoEx_nolock 0000000180023ffc     libucrt:locale_refcounting.obj
 0004:00001008       $pdata$_isleadbyte_l       0000000180024008     libucrt:_wctype.obj
 0004:00001014       $pdata$?__acrt_LCMapStringA_stat@@YAHPEAU__crt_locale_pointers@@PEB_WKPEBDHPEADHHH@Z 0000000180024014     libucrt:lcmapstringa.obj
 0004:00001020       $pdata$__acrt_LCMapStringA 0000000180024020     libucrt:lcmapstringa.obj
 0004:0000102c       $pdata$__acrt_locale_free_monetary 000000018002402c     libucrt:initmon.obj
 0004:00001038       $pdata$__acrt_locale_free_numeric 0000000180024038     libucrt:initnum.obj
 0004:00001044       $pdata$?free_crt_array_internal@@YAXQEAPEBX_K@Z 0000000180024044     libucrt:inittime.obj
 0004:00001050       $pdata$__acrt_locale_free_time 0000000180024050     libucrt:inittime.obj
 0004:0000105c       $pdata$__acrt_GetStringTypeA 000000018002405c     libucrt:getstringtypea.obj
 0004:00001068       $pdata$qsort               0000000180024068     libucrt:qsort.obj
 0004:00001074       $pdata$4$qsort             0000000180024074     libucrt:qsort.obj
 0004:00001080       $pdata$5$qsort             0000000180024080     libucrt:qsort.obj
 0004:0000108c       $pdata$strncpy_s           000000018002408c     libucrt:strncpy_s.obj
 0004:00001098       $pdata$fallbackMethod      0000000180024098     libucrt:strpbrk.obj
 0004:000010a4       $pdata$strpbrk             00000001800240a4     libucrt:strpbrk.obj
 0004:000010b0       $pdata$_mbsdec_l           00000001800240b0     libucrt:mbsdec.obj
 0004:000010bc       $pdata$?initialize_multibyte@@YAHXZ 00000001800240bc     libucrt:multibyte_initializer.obj
 0004:000010c8       $pdata$_msize_base         00000001800240c8     libucrt:msize.obj
 0004:000010d4       $pdata$_realloc_base       00000001800240d4     libucrt:realloc_base.obj
 0004:000010e0       $pdata$?GetTableIndexFromLocaleName@@YAHPEB_W@Z 00000001800240e0     libucrt:lcidtoname_downlevel.obj
 0004:000010ec       $pdata$__acrt_DownlevelLocaleNameToLCID 00000001800240ec     libucrt:lcidtoname_downlevel.obj
 0004:000010f8       $pdata$??$?RV<lambda_a37b2b86f63e897a80ea819b0eb08c01>@@AEAV<lambda_38ce7e780aa69e748d6df282ebc68efe>@@V<lambda_99fb1378e971ab6e7edea83e3a7a83a2>@@@?$__crt_seh_guarded_call@H@@QEAAH$$QEAV<lambda_a37b2b86f63e897a80ea819b0eb08c01>@@AEAV<lambda_38ce7e780aa69e748d6df282ebc68efe>@@$$QEAV<lambda_99fb1378e971ab6e7edea83e3a7a83a2>@@@Z 00000001800240f8     libucrt:commit.obj
 0004:00001104       $pdata$_commit             0000000180024104     libucrt:commit.obj
 0004:00001110       $pdata$?write_double_translated_ansi_nolock@@YA?AUwrite_result@?A0x17268360@@HQEBDI@Z 0000000180024110     libucrt:write.obj
 0004:0000111c       $pdata$?write_text_ansi_nolock@@YA?AUwrite_result@?A0x17268360@@HQEBDI@Z 000000018002411c     libucrt:write.obj
 0004:00001128       $pdata$?write_text_utf16le_nolock@@YA?AUwrite_result@?A0x17268360@@HQEBDI@Z 0000000180024128     libucrt:write.obj
 0004:00001134       $pdata$?write_text_utf8_nolock@@YA?AUwrite_result@?A0x17268360@@HQEBDI@Z 0000000180024134     libucrt:write.obj
 0004:00001140       $pdata$_write              0000000180024140     libucrt:write.obj
 0004:0000114c       $pdata$_write_nolock       000000018002414c     libucrt:write.obj
 0004:00001158       $pdata$_isatty             0000000180024158     libucrt:isatty.obj
 0004:00001164       $pdata$_fclose_nolock      0000000180024164     libucrt:fclose.obj
 0004:00001170       $pdata$fclose              0000000180024170     libucrt:fclose.obj
 0004:0000117c       $pdata$??$common_lseek_nolock@_J@@YA_JH_JH@Z 000000018002417c     libucrt:lseek.obj
 0004:00001188       $pdata$_putwch_nolock      0000000180024188     libucrt:putwch.obj
 0004:000011a0       $pdata$??$?RV<lambda_751a882b2c74d4b022dec766aa51a29a>@@AEAV<lambda_628dfdc04ba53c8bfc02c9951375f3f5>@@V<lambda_f6c7be5f7998530c34de24c7437d6b54>@@@?$__crt_seh_guarded_call@H@@QEAAH$$QEAV<lambda_751a882b2c74d4b022dec766aa51a29a>@@AEAV<lambda_628dfdc04ba53c8bfc02c9951375f3f5>@@$$QEAV<lambda_f6c7be5f7998530c34de24c7437d6b54>@@@Z 00000001800241a0     libucrt:close.obj
 0004:000011ac       $pdata$_close              00000001800241ac     libucrt:close.obj
 0004:000011b8       $pdata$_close_nolock       00000001800241b8     libucrt:close.obj
 0004:000011c4       $pdata$__dcrt_lowio_ensure_console_output_initialized 00000001800241c4     libucrt:initcon.obj
 0004:000011d0       $pdata$__dcrt_terminate_console_output 00000001800241d0     libucrt:initcon.obj
 0004:000011dc       $pdata$__dcrt_write_console_w 00000001800241dc     libucrt:initcon.obj
 0004:000011e8       $pdata$_call_matherr       00000001800241e8     libucrt:libm_error.obj
 0004:000011f4       $pdata$_exception_enabled  00000001800241f4     libucrt:libm_error.obj
 0004:00001200       $pdata$_handle_error       0000000180024200     libucrt:libm_error.obj
 0004:0000120c       $pdata$__acrt_initialize_fma3 000000018002420c     libucrt:fma3_available.obj
 0004:00001218       $pdata$_log10_special      0000000180024218     libucrt:log_special.obj
 0004:00001224       $pdata$_log_special_common 0000000180024224     libucrt:log_special.obj
 0004:0000123c       $pdata$_raise_exc          000000018002423c     libucrt:fpexcept.obj
 0004:00001248       $pdata$_raise_exc_ex       0000000180024248     libucrt:fpexcept.obj
 0004:00001254       $pdata$_set_errno_from_matherr 0000000180024254     libucrt:fpexcept.obj
 0004:00001260       $pdata$_clrfp              0000000180024260     libucrt:fpctrl.obj
 0004:0000126c       $pdata$_ctrlfp             000000018002426c     libucrt:fpctrl.obj
 0004:00001278       $pdata$_set_statfp         0000000180024278     libucrt:fpctrl.obj
 0004:00001284       $pdata$_statfp             0000000180024284     libucrt:fpctrl.obj
 0004:00001290       $pdata$?DloadAcquireSectionWriteAccess@@YAXXZ 0000000180024290     DelayImp:delayhlp.obj
 0004:0000129c       $pdata$?DloadGetSRWLockFunctionPointers@@YAEXZ 000000018002429c     DelayImp:delayhlp.obj
 0004:000012a8       $pdata$?DloadMakePermanentImageCommit@@YAXPEAX_K@Z 00000001800242a8     DelayImp:delayhlp.obj
 0004:000012b4       $pdata$?DloadObtainSection@@YAPEAXPEAK0@Z 00000001800242b4     DelayImp:delayhlp.obj
 0004:000012c0       $pdata$?DloadProtectSection@@YAXKPEAK@Z 00000001800242c0     DelayImp:delayhlp.obj
 0004:000012cc       $pdata$?DloadReleaseSectionWriteAccess@@YAXXZ 00000001800242cc     DelayImp:delayhlp.obj
 0004:000012d8       $pdata$__delayLoadHelper2  00000001800242d8     DelayImp:delayhlp.obj
 0004:000012e4       $pdata$_IsNonwritableInCurrentImage 00000001800242e4     LIBCMT:pesect.obj
 0004:000012f0       $pdata$__GSHandlerCheck    00000001800242f0     LIBCMT:gshandler.obj
 0004:000012fc       $pdata$__GSHandlerCheckCommon 00000001800242fc     LIBCMT:gshandler.obj
 0004:00001314       $pdata$_local_unwind       0000000180024314     libvcruntime:jmpuwind.obj
 0004:00001338       $pdata$__scrt_is_nonwritable_in_current_image$filt$0 0000000180024338     LIBCMT:utility.obj
 0004:00001344       $pdata$?fin$0@?0??dllmain_crt_process_attach@@YAHQEAUHINSTANCE__@@QEAX@Z@4HA 0000000180024344     LIBCMT:dll_dllmain.obj
 0004:00001350       $pdata$?fin$0@?0??dllmain_crt_process_detach@@YAH_N@Z@4HA 0000000180024350     LIBCMT:dll_dllmain.obj
 0004:0000135c       $pdata$?filt$0@?0??dllmain_dispatch@@YAHQEAUHINSTANCE__@@KQEAX@Z@4HA 000000018002435c     LIBCMT:dll_dllmain.obj
 0004:00001368       $pdata$__DestructExceptionObject$filt$0 0000000180024368     libvcruntime:ehhelpers.obj
 0004:00001374       $pdata$fgetc$fin$0         0000000180024374     libucrt:fgetc.obj
 0004:00001380       $pdata$_query_new_handler$fin$0 0000000180024380     libucrt:new_handler.obj
 0004:0000138c       $pdata$?fin$0@?0???$?RV<lambda_2d41944a1d46af3157314b8a01080d33>@@AEAV<lambda_8f455de75cd7d7f24b4096f044d8b9e6>@@V<lambda_aa500f224e6afead328df44964fe2772>@@@?$__crt_seh_guarded_call@X@@QEAAX$$QEAV<lambda_2d41944a1d46af3157314b8a01080d33>@@AEAV<lambda_8f455de75cd7d7f24b4096f044d8b9e6>@@$$QEAV<lambda_aa500f224e6afead328df44964fe2772>@@@Z@4HA 000000018002438c     libucrt:per_thread_data.obj
 0004:0000138c       $pdata$?fin$0@?0???$?RV<lambda_450d765d439847d4c735a33c368b5fc0>@@AEAV<lambda_44731a7d0e6d81c3e6aa82d741081786>@@V<lambda_601a2a7da3b7a96e9554ac7215c4b07c>@@@?$__crt_seh_guarded_call@P6AXH@Z@@QEAAP6AXH@Z$$QEAV<lambda_450d765d439847d4c735a33c368b5fc0>@@AEAV<lambda_44731a7d0e6d81c3e6aa82d741081786>@@$$QEAV<lambda_601a2a7da3b7a96e9554ac7215c4b07c>@@@Z@4HA 000000018002438c     libucrt:signal.obj
 0004:0000138c       $pdata$?fin$0@?0???$?RV<lambda_d80eeec6fff315bfe5c115232f3240e3>@@AEAV<lambda_6e4b09c48022b2350581041d5f6b0c4c>@@V<lambda_2358e3775559c9db80273638284d5e45>@@@?$__crt_seh_guarded_call@X@@QEAAX$$QEAV<lambda_d80eeec6fff315bfe5c115232f3240e3>@@AEAV<lambda_6e4b09c48022b2350581041d5f6b0c4c>@@$$QEAV<lambda_2358e3775559c9db80273638284d5e45>@@@Z@4HA 000000018002438c     libucrt:exit.obj
 0004:0000138c       $pdata$?fin$0@?0???$?RV<lambda_7777bce6b2f8c936911f934f8298dc43>@@AEAV<lambda_f03950bc5685219e0bcd2087efbe011e>@@V<lambda_3883c3dff614d5e0c5f61bb1ac94921c>@@@?$__crt_seh_guarded_call@H@@QEAAH$$QEAV<lambda_7777bce6b2f8c936911f934f8298dc43>@@AEAV<lambda_f03950bc5685219e0bcd2087efbe011e>@@$$QEAV<lambda_3883c3dff614d5e0c5f61bb1ac94921c>@@@Z@4HA 000000018002438c     libucrt:onexit.obj
 0004:0000138c       $pdata$?fin$0@?0???$?RV<lambda_0ae27a3a962d80f24befdcbee591983d>@@AEAV<lambda_8d0ee55de4b1038c4002e0adecdf1839>@@V<lambda_dc504788e8f1664fe9b84e20bfb512f2>@@@?$__crt_seh_guarded_call@X@@QEAAX$$QEAV<lambda_0ae27a3a962d80f24befdcbee591983d>@@AEAV<lambda_8d0ee55de4b1038c4002e0adecdf1839>@@$$QEAV<lambda_dc504788e8f1664fe9b84e20bfb512f2>@@@Z@4HA 000000018002438c     libucrt:per_thread_data.obj
 0004:0000138c       $pdata$?fin$0@?0???$?RV<lambda_f2e299630e499de9f9a165e60fcd3db5>@@AEAV<lambda_2ae9d31cdba2644fcbeaf08da7c24588>@@V<lambda_40d01ff24d0e7b3814fdbdcee8eab3c7>@@@?$__crt_seh_guarded_call@X@@QEAAX$$QEAV<lambda_f2e299630e499de9f9a165e60fcd3db5>@@AEAV<lambda_2ae9d31cdba2644fcbeaf08da7c24588>@@$$QEAV<lambda_40d01ff24d0e7b3814fdbdcee8eab3c7>@@@Z@4HA 000000018002438c     libucrt:per_thread_data.obj
 0004:0000138c       $pdata$?fin$0@?0???$?RV<lambda_aa87e3671a710a21b5dc78c0bdf72e11>@@AEAV<lambda_92619d2358a28f41a33ba319515a20b9>@@V<lambda_6992ecaafeb10aed2b74cb1fae11a551>@@@?$__crt_seh_guarded_call@X@@QEAAX$$QEAV<lambda_aa87e3671a710a21b5dc78c0bdf72e11>@@AEAV<lambda_92619d2358a28f41a33ba319515a20b9>@@$$QEAV<lambda_6992ecaafeb10aed2b74cb1fae11a551>@@@Z@4HA 000000018002438c     libucrt:per_thread_data.obj
 0004:0000138c       $pdata$?fin$0@?0???$?RV<lambda_8369fcb7c4df1e85de37618bd2b85f07>@@AEAV<lambda_a10e4b102d4a2c3aac6f4f48bbdf488f>@@V<lambda_5b7707bd6d7a0c4713179f36c7fd995d>@@@?$__crt_seh_guarded_call@H@@QEAAH$$QEAV<lambda_8369fcb7c4df1e85de37618bd2b85f07>@@AEAV<lambda_a10e4b102d4a2c3aac6f4f48bbdf488f>@@$$QEAV<lambda_5b7707bd6d7a0c4713179f36c7fd995d>@@@Z@4HA 000000018002438c     libucrt:onexit.obj
 0004:0000138c       $pdata$?fin$0@?0???$?RV<lambda_efdfa57d1f175319df784efa44bb7b81>@@AEAV<lambda_5f0a4c1567f8adc6734073e5d1e1b35c>@@V<lambda_2e8a7d3640ea6ccb4c2413664c2db6fd>@@@?$__crt_seh_guarded_call@X@@QEAAX$$QEAV<lambda_efdfa57d1f175319df784efa44bb7b81>@@AEAV<lambda_5f0a4c1567f8adc6734073e5d1e1b35c>@@$$QEAV<lambda_2e8a7d3640ea6ccb4c2413664c2db6fd>@@@Z@4HA 000000018002438c     libucrt:mbctype.obj
 0004:00001398       $pdata$?filt$0@?0???R<lambda_6e4b09c48022b2350581041d5f6b0c4c>@@QEBA@XZ@4HA 0000000180024398     libucrt:exit.obj
 0004:000013a4       $pdata$__acrt_initialize_lowio$fin$0 00000001800243a4     libucrt:ioinit.obj
 0004:000013a4       $pdata$__acrt_lowio_ensure_fh_exists$fin$0 00000001800243a4     libucrt:osfinfo.obj
 0004:000013b0       $pdata$?fin$0@?0???$?RV<lambda_410d79af7f07d98d83a3f525b3859a53>@@AEAV<lambda_3e16ef9562a7dcce91392c22ab16ea36>@@V<lambda_38119f0e861e05405d8a144b9b982f0a>@@@?$__crt_seh_guarded_call@X@@QEAAX$$QEAV<lambda_410d79af7f07d98d83a3f525b3859a53>@@AEAV<lambda_3e16ef9562a7dcce91392c22ab16ea36>@@$$QEAV<lambda_38119f0e861e05405d8a144b9b982f0a>@@@Z@4HA 00000001800243b0     libucrt:wsetlocale.obj
 0004:000013bc       $pdata$?fin$0@?0??update_thread_multibyte_data_internal@@YAPEAU__crt_multibyte_data@@QEAU__acrt_ptd@@QEAPEAU1@@Z@4HA 00000001800243bc     libucrt:mbctype.obj
 0004:000013c8       $pdata$raise$fin$0         00000001800243c8     libucrt:signal.obj
 0004:000013d4       $pdata$?fin$0@?0???$?RV<lambda_842d9ff0dc9ef11c61343bbaebe7f885>@@AEAV<lambda_c5860995281e5c4ce005b3de8f5874ee>@@V<lambda_d90129c13df834fdcbf8d2b88dafcf2d>@@@?$__crt_seh_guarded_call@X@@QEAAX$$QEAV<lambda_842d9ff0dc9ef11c61343bbaebe7f885>@@AEAV<lambda_c5860995281e5c4ce005b3de8f5874ee>@@$$QEAV<lambda_d90129c13df834fdcbf8d2b88dafcf2d>@@@Z@4HA 00000001800243d4     libucrt:fflush.obj
 0004:000013e0       $pdata$?fin$0@?0???$?RV<lambda_886d6c58226a84441f68b9f2b8217b83>@@AEAV<lambda_ab61a845afdef5b7c387490eaf3616ee>@@V<lambda_f7f22ab5edc0698d5f6905b0d3f44752>@@@?$__crt_seh_guarded_call@X@@QEAAX$$QEAV<lambda_886d6c58226a84441f68b9f2b8217b83>@@AEAV<lambda_ab61a845afdef5b7c387490eaf3616ee>@@$$QEAV<lambda_f7f22ab5edc0698d5f6905b0d3f44752>@@@Z@4HA 00000001800243e0     libucrt:fflush.obj
 0004:000013ec       $pdata$_fcloseall$fin$0    00000001800243ec     libucrt:closeall.obj
 0004:000013f8       $pdata$_read$fin$0         00000001800243f8     libucrt:read.obj
 0004:00001404       $pdata$__acrt_update_thread_locale_data$fin$0 0000000180024404     libucrt:locale_refcounting.obj
 0004:00001410       $pdata$?fin$0@?0???$?RV<lambda_751a882b2c74d4b022dec766aa51a29a>@@AEAV<lambda_628dfdc04ba53c8bfc02c9951375f3f5>@@V<lambda_f6c7be5f7998530c34de24c7437d6b54>@@@?$__crt_seh_guarded_call@H@@QEAAH$$QEAV<lambda_751a882b2c74d4b022dec766aa51a29a>@@AEAV<lambda_628dfdc04ba53c8bfc02c9951375f3f5>@@$$QEAV<lambda_f6c7be5f7998530c34de24c7437d6b54>@@@Z@4HA 0000000180024410     libucrt:close.obj
 0004:00001410       $pdata$?fin$0@?0???$?RV<lambda_a37b2b86f63e897a80ea819b0eb08c01>@@AEAV<lambda_38ce7e780aa69e748d6df282ebc68efe>@@V<lambda_99fb1378e971ab6e7edea83e3a7a83a2>@@@?$__crt_seh_guarded_call@H@@QEAAH$$QEAV<lambda_a37b2b86f63e897a80ea819b0eb08c01>@@AEAV<lambda_38ce7e780aa69e748d6df282ebc68efe>@@$$QEAV<lambda_99fb1378e971ab6e7edea83e3a7a83a2>@@@Z@4HA 0000000180024410     libucrt:commit.obj
 0004:0000141c       $pdata$_write$fin$0        000000018002441c     libucrt:write.obj
 0004:00001428       $pdata$fclose$fin$0        0000000180024428     libucrt:fclose.obj
 0004:00001434       $pdata$_ctrlfp$filt$0      0000000180024434     libucrt:fpctrl.obj
 0004:00001440       $pdata$_IsNonwritableInCurrentImage$filt$0 0000000180024440     LIBCMT:pesect.obj
 0005:00000060       $R000000                   0000000180025060     * linker generated manifest res *

 Exports

  ordinal    name

        1    _register_memoryjs_
